
debug/build/debug.elf:     file format elf32-littlearm


Disassembly of section .text:

08000000 <tableVector>:
 8000000:	40 00 00 20 31 01 00 08 d9 02 00 08 d9 02 00 08     @.. 1...........
 8000010:	d9 02 00 08 d9 02 00 08 d9 02 00 08 00 00 00 00     ................
	...
 800002c:	d9 02 00 08 d9 02 00 08 00 00 00 00 7f 01 00 08     ................
 800003c:	c3 01 00 08 d9 02 00 08 d9 02 00 08 d9 02 00 08     ................
 800004c:	d9 02 00 08 d9 02 00 08 d9 02 00 08 d9 02 00 08     ................
 800005c:	d9 02 00 08 d9 02 00 08 d9 02 00 08 d9 02 00 08     ................
 800006c:	d9 02 00 08 d9 02 00 08 d9 02 00 08 d9 02 00 08     ................
 800007c:	d9 02 00 08 d9 02 00 08 d9 02 00 08 d9 02 00 08     ................
 800008c:	d9 02 00 08 d9 02 00 08 d9 02 00 08 d9 02 00 08     ................
 800009c:	d9 02 00 08 d9 02 00 08 d9 02 00 08 d9 02 00 08     ................
 80000ac:	d9 02 00 08 d9 02 00 08 d9 02 00 08 d9 02 00 08     ................
 80000bc:	d9 02 00 08 d9 02 00 08 d9 02 00 08 d9 02 00 08     ................
 80000cc:	d9 02 00 08 d9 02 00 08 d9 02 00 08 d9 02 00 08     ................
 80000dc:	d9 02 00 08 d9 02 00 08 d9 02 00 08 d9 02 00 08     ................
 80000ec:	d9 02 00 08 d9 02 00 08 d9 02 00 08 d9 02 00 08     ................
 80000fc:	d9 02 00 08 d9 02 00 08 d9 02 00 08 d9 02 00 08     ................
 800010c:	d9 02 00 08 d9 02 00 08 d9 02 00 08 d9 02 00 08     ................
 800011c:	d9 02 00 08 d9 02 00 08 d9 02 00 08 d9 02 00 08     ................
 800012c:	d9 02 00 08                                         ....

08000130 <expReset>:
 8000130:	b672      	cpsid	i
 8000132:	496a      	ldr	r1, [pc, #424]	; (80002dc <irqDefault+0x4>)
 8000134:	4a6a      	ldr	r2, [pc, #424]	; (80002e0 <irqDefault+0x8>)
 8000136:	4b6b      	ldr	r3, [pc, #428]	; (80002e4 <irqDefault+0xc>)

08000138 <_dataCopy>:
 8000138:	429a      	cmp	r2, r3
 800013a:	bf1e      	ittt	ne
 800013c:	c901      	ldmiane	r1!, {r0}
 800013e:	c201      	stmiane	r2!, {r0}
 8000140:	e7fa      	bne.n	8000138 <_dataCopy>
 8000142:	4a69      	ldr	r2, [pc, #420]	; (80002e8 <irqDefault+0x10>)
 8000144:	4b69      	ldr	r3, [pc, #420]	; (80002ec <irqDefault+0x14>)
 8000146:	2000      	movs	r0, #0

08000148 <_bssClear>:
 8000148:	429a      	cmp	r2, r3
 800014a:	bf1c      	itt	ne
 800014c:	c201      	stmiane	r2!, {r0}
 800014e:	e7fb      	bne.n	8000148 <_bssClear>
 8000150:	f000 f8e0 	bl	8000314 <cpuInit>
 8000154:	f000 fa20 	bl	8000598 <pinInit>
 8000158:	4865      	ldr	r0, [pc, #404]	; (80002f0 <irqDefault+0x18>)
 800015a:	2107      	movs	r1, #7
 800015c:	4a65      	ldr	r2, [pc, #404]	; (80002f4 <irqDefault+0x1c>)
 800015e:	f000 f87a 	bl	8000256 <kthreadInit>
 8000162:	4865      	ldr	r0, [pc, #404]	; (80002f8 <irqDefault+0x20>)
 8000164:	2100      	movs	r1, #0
 8000166:	4a65      	ldr	r2, [pc, #404]	; (80002fc <irqDefault+0x24>)
 8000168:	f000 f875 	bl	8000256 <kthreadInit>
 800016c:	2000      	movs	r0, #0
 800016e:	f380 8809 	msr	PSP, r0
 8000172:	4863      	ldr	r0, [pc, #396]	; (8000300 <irqDefault+0x28>)
 8000174:	f04f 5180 	mov.w	r1, #268435456	; 0x10000000
 8000178:	6001      	str	r1, [r0, #0]
 800017a:	b662      	cpsie	i
 800017c:	e7fe      	b.n	800017c <_bssClear+0x34>

0800017e <expPendSV>:
 800017e:	f3ef 8009 	mrs	r0, PSP
 8000182:	b190      	cbz	r0, 80001aa <_pendsvFirst>
 8000184:	e920 0ff0 	stmdb	r0!, {r4, r5, r6, r7, r8, r9, sl, fp}
 8000188:	4a5e      	ldr	r2, [pc, #376]	; (8000304 <irqDefault+0x2c>)
 800018a:	f102 0120 	add.w	r1, r2, #32
 800018e:	7f93      	ldrb	r3, [r2, #30]
 8000190:	f841 0023 	str.w	r0, [r1, r3, lsl #2]
 8000194:	7fd3      	ldrb	r3, [r2, #31]
 8000196:	7793      	strb	r3, [r2, #30]
 8000198:	f851 0023 	ldr.w	r0, [r1, r3, lsl #2]
 800019c:	e8b0 0ff0 	ldmia.w	r0!, {r4, r5, r6, r7, r8, r9, sl, fp}
 80001a0:	f380 8809 	msr	PSP, r0
 80001a4:	f06f 0e02 	mvn.w	lr, #2
 80001a8:	4770      	bx	lr

080001aa <_pendsvFirst>:
 80001aa:	4857      	ldr	r0, [pc, #348]	; (8000308 <irqDefault+0x30>)
 80001ac:	f380 8808 	msr	MSP, r0
 80001b0:	4954      	ldr	r1, [pc, #336]	; (8000304 <irqDefault+0x2c>)
 80001b2:	6a08      	ldr	r0, [r1, #32]
 80001b4:	e8b0 0ff0 	ldmia.w	r0!, {r4, r5, r6, r7, r8, r9, sl, fp}
 80001b8:	f380 8809 	msr	PSP, r0
 80001bc:	f06f 0e02 	mvn.w	lr, #2
 80001c0:	4770      	bx	lr

080001c2 <expSysTick>:
 80001c2:	f64a 20aa 	movw	r0, #43690	; 0xaaaa
 80001c6:	4951      	ldr	r1, [pc, #324]	; (800030c <irqDefault+0x34>)
 80001c8:	8008      	strh	r0, [r1, #0]

080001ca <_stThread6>:
 80001ca:	484e      	ldr	r0, [pc, #312]	; (8000304 <irqDefault+0x2c>)
 80001cc:	e9d0 2106 	ldrd	r2, r1, [r0, #24]
 80001d0:	b122      	cbz	r2, 80001dc <_stThread5>
 80001d2:	3a01      	subs	r2, #1
 80001d4:	bf08      	it	eq
 80001d6:	f041 0140 	orreq.w	r1, r1, #64	; 0x40
 80001da:	6182      	str	r2, [r0, #24]

080001dc <_stThread5>:
 80001dc:	e9d0 2304 	ldrd	r2, r3, [r0, #16]
 80001e0:	b123      	cbz	r3, 80001ec <_stThread4>
 80001e2:	3b01      	subs	r3, #1
 80001e4:	bf08      	it	eq
 80001e6:	f041 0120 	orreq.w	r1, r1, #32
 80001ea:	6143      	str	r3, [r0, #20]

080001ec <_stThread4>:
 80001ec:	b122      	cbz	r2, 80001f8 <_stThread3>
 80001ee:	3a01      	subs	r2, #1
 80001f0:	bf08      	it	eq
 80001f2:	f041 0110 	orreq.w	r1, r1, #16
 80001f6:	6102      	str	r2, [r0, #16]

080001f8 <_stThread3>:
 80001f8:	e9d0 2302 	ldrd	r2, r3, [r0, #8]
 80001fc:	b123      	cbz	r3, 8000208 <_stThread2>
 80001fe:	3b01      	subs	r3, #1
 8000200:	bf08      	it	eq
 8000202:	f041 0108 	orreq.w	r1, r1, #8
 8000206:	60c3      	str	r3, [r0, #12]

08000208 <_stThread2>:
 8000208:	b122      	cbz	r2, 8000214 <_stThread1>
 800020a:	3a01      	subs	r2, #1
 800020c:	bf08      	it	eq
 800020e:	f041 0104 	orreq.w	r1, r1, #4
 8000212:	6082      	str	r2, [r0, #8]

08000214 <_stThread1>:
 8000214:	e9d0 2300 	ldrd	r2, r3, [r0]
 8000218:	b123      	cbz	r3, 8000224 <_stThread0>
 800021a:	3b01      	subs	r3, #1
 800021c:	bf08      	it	eq
 800021e:	f041 0102 	orreq.w	r1, r1, #2
 8000222:	6043      	str	r3, [r0, #4]

08000224 <_stThread0>:
 8000224:	b122      	cbz	r2, 8000230 <_stThreadSw>
 8000226:	3a01      	subs	r2, #1
 8000228:	bf08      	it	eq
 800022a:	f041 0101 	orreq.w	r1, r1, #1
 800022e:	6002      	str	r2, [r0, #0]

08000230 <_stThreadSw>:
 8000230:	fa91 f2a1 	rbit	r2, r1
 8000234:	fab2 f282 	clz	r2, r2
 8000238:	f362 611f 	bfi	r1, r2, #24, #8
 800023c:	61c1      	str	r1, [r0, #28]
 800023e:	f3c1 4107 	ubfx	r1, r1, #16, #8
 8000242:	428a      	cmp	r2, r1
 8000244:	bf1e      	ittt	ne
 8000246:	482e      	ldrne	r0, [pc, #184]	; (8000300 <irqDefault+0x28>)
 8000248:	f04f 5180 	movne.w	r1, #268435456	; 0x10000000
 800024c:	6001      	strne	r1, [r0, #0]
 800024e:	4770      	bx	lr

08000250 <procIdle>:
 8000250:	bf30      	wfi
 8000252:	f7ff bffd 	b.w	8000250 <procIdle>

08000256 <kthreadInit>:
 8000256:	f04f 7380 	mov.w	r3, #16777216	; 0x1000000
 800025a:	e922 0009 	stmdb	r2!, {r0, r3}
 800025e:	f06f 0301 	mvn.w	r3, #1
 8000262:	f842 3d04 	str.w	r3, [r2, #-4]!
 8000266:	3a34      	subs	r2, #52	; 0x34
 8000268:	4829      	ldr	r0, [pc, #164]	; (8000310 <irqDefault+0x38>)
 800026a:	f840 2021 	str.w	r2, [r0, r1, lsl #2]
 800026e:	2201      	movs	r2, #1
 8000270:	408a      	lsls	r2, r1
 8000272:	f3ef 8310 	mrs	r3, PRIMASK
 8000276:	b672      	cpsid	i
 8000278:	f850 1d04 	ldr.w	r1, [r0, #-4]!
 800027c:	4311      	orrs	r1, r2
 800027e:	fa91 f2a1 	rbit	r2, r1
 8000282:	fab2 f282 	clz	r2, r2
 8000286:	f362 611f 	bfi	r1, r2, #24, #8
 800028a:	6001      	str	r1, [r0, #0]
 800028c:	f3c1 4107 	ubfx	r1, r1, #16, #8
 8000290:	428a      	cmp	r2, r1
 8000292:	bf1e      	ittt	ne
 8000294:	481a      	ldrne	r0, [pc, #104]	; (8000300 <irqDefault+0x28>)
 8000296:	f04f 5180 	movne.w	r1, #268435456	; 0x10000000
 800029a:	6001      	strne	r1, [r0, #0]
 800029c:	f383 8810 	msr	PRIMASK, r3
 80002a0:	4770      	bx	lr

080002a2 <kthreadSleep>:
 80002a2:	b510      	push	{r4, lr}
 80002a4:	4917      	ldr	r1, [pc, #92]	; (8000304 <irqDefault+0x2c>)
 80002a6:	f3ef 8410 	mrs	r4, PRIMASK
 80002aa:	b672      	cpsid	i
 80002ac:	69ca      	ldr	r2, [r1, #28]
 80002ae:	f3c2 4307 	ubfx	r3, r2, #16, #8
 80002b2:	f841 0023 	str.w	r0, [r1, r3, lsl #2]
 80002b6:	2001      	movs	r0, #1
 80002b8:	4098      	lsls	r0, r3
 80002ba:	4382      	bics	r2, r0
 80002bc:	fa92 f0a2 	rbit	r0, r2
 80002c0:	fab0 f080 	clz	r0, r0
 80002c4:	f360 621f 	bfi	r2, r0, #24, #8
 80002c8:	61ca      	str	r2, [r1, #28]
 80002ca:	480d      	ldr	r0, [pc, #52]	; (8000300 <irqDefault+0x28>)
 80002cc:	f04f 5180 	mov.w	r1, #268435456	; 0x10000000
 80002d0:	6001      	str	r1, [r0, #0]
 80002d2:	f384 8810 	msr	PRIMASK, r4
 80002d6:	bd10      	pop	{r4, pc}

080002d8 <irqDefault>:
 80002d8:	b672      	cpsid	i
 80002da:	e7fe      	b.n	80002da <irqDefault+0x2>
 80002dc:	0800e4f4 	.word	0x0800e4f4
 80002e0:	200002f0 	.word	0x200002f0
 80002e4:	200002f0 	.word	0x200002f0
 80002e8:	20000040 	.word	0x20000040
 80002ec:	200002f0 	.word	0x200002f0
 80002f0:	08000251 	.word	0x08000251
 80002f4:	200000a8 	.word	0x200000a8
 80002f8:	08000505 	.word	0x08000505
 80002fc:	200002a8 	.word	0x200002a8
 8000300:	e000ed04 	.word	0xe000ed04
 8000304:	200002a8 	.word	0x200002a8
 8000308:	20000040 	.word	0x20000040
 800030c:	40003000 	.word	0x40003000
 8000310:	200002c8 	.word	0x200002c8

08000314 <cpuInit>:
 8000314:	2102      	movs	r1, #2
 8000316:	4b3a      	ldr	r3, [pc, #232]	; (8000400 <cpuInit+0xec>)
 8000318:	681a      	ldr	r2, [r3, #0]
 800031a:	f6a3 73fc 	subw	r3, r3, #4092	; 0xffc
 800031e:	f361 0202 	bfi	r2, r1, #0, #3
 8000322:	210e      	movs	r1, #14
 8000324:	f8c3 2ffc 	str.w	r2, [r3, #4092]	; 0xffc
 8000328:	681a      	ldr	r2, [r3, #0]
 800032a:	f361 4295 	bfi	r2, r1, #18, #4
 800032e:	2104      	movs	r1, #4
 8000330:	601a      	str	r2, [r3, #0]
 8000332:	681a      	ldr	r2, [r3, #0]
 8000334:	f361 220a 	bfi	r2, r1, #8, #3
 8000338:	601a      	str	r2, [r3, #0]
 800033a:	681a      	ldr	r2, [r3, #0]
 800033c:	f36f 22cd 	bfc	r2, #11, #3
 8000340:	601a      	str	r2, [r3, #0]
 8000342:	681a      	ldr	r2, [r3, #0]
 8000344:	f442 4240 	orr.w	r2, r2, #49152	; 0xc000
 8000348:	601a      	str	r2, [r3, #0]
 800034a:	4a2e      	ldr	r2, [pc, #184]	; (8000404 <cpuInit+0xf0>)
 800034c:	6811      	ldr	r1, [r2, #0]
 800034e:	f041 7180 	orr.w	r1, r1, #16777216	; 0x1000000
 8000352:	6011      	str	r1, [r2, #0]
 8000354:	6811      	ldr	r1, [r2, #0]
 8000356:	0189      	lsls	r1, r1, #6
 8000358:	d5fc      	bpl.n	8000354 <cpuInit+0x40>
 800035a:	2102      	movs	r1, #2
 800035c:	681a      	ldr	r2, [r3, #0]
 800035e:	f361 0201 	bfi	r2, r1, #0, #2
 8000362:	601a      	str	r2, [r3, #0]
 8000364:	681a      	ldr	r2, [r3, #0]
 8000366:	f3c2 0281 	ubfx	r2, r2, #2, #2
 800036a:	2a02      	cmp	r2, #2
 800036c:	d1fa      	bne.n	8000364 <cpuInit+0x50>
 800036e:	4b26      	ldr	r3, [pc, #152]	; (8000408 <cpuInit+0xf4>)
 8000370:	681a      	ldr	r2, [r3, #0]
 8000372:	f042 0201 	orr.w	r2, r2, #1
 8000376:	601a      	str	r2, [r3, #0]
 8000378:	681a      	ldr	r2, [r3, #0]
 800037a:	f042 0204 	orr.w	r2, r2, #4
 800037e:	601a      	str	r2, [r3, #0]
 8000380:	681a      	ldr	r2, [r3, #0]
 8000382:	f042 0208 	orr.w	r2, r2, #8
 8000386:	601a      	str	r2, [r3, #0]
 8000388:	681a      	ldr	r2, [r3, #0]
 800038a:	f042 0210 	orr.w	r2, r2, #16
 800038e:	601a      	str	r2, [r3, #0]
 8000390:	681a      	ldr	r2, [r3, #0]
 8000392:	f042 0220 	orr.w	r2, r2, #32
 8000396:	601a      	str	r2, [r3, #0]
 8000398:	4b1c      	ldr	r3, [pc, #112]	; (800040c <cpuInit+0xf8>)
 800039a:	4a1d      	ldr	r2, [pc, #116]	; (8000410 <cpuInit+0xfc>)
 800039c:	601a      	str	r2, [r3, #0]
 800039e:	2370      	movs	r3, #112	; 0x70
 80003a0:	4a1c      	ldr	r2, [pc, #112]	; (8000414 <cpuInit+0x100>)
 80003a2:	7013      	strb	r3, [r2, #0]
 80003a4:	7053      	strb	r3, [r2, #1]
 80003a6:	f641 723f 	movw	r2, #7999	; 0x1f3f
 80003aa:	4b1b      	ldr	r3, [pc, #108]	; (8000418 <cpuInit+0x104>)
 80003ac:	601a      	str	r2, [r3, #0]
 80003ae:	f853 2c04 	ldr.w	r2, [r3, #-4]
 80003b2:	f042 0202 	orr.w	r2, r2, #2
 80003b6:	f843 2c04 	str.w	r2, [r3, #-4]
 80003ba:	f853 2c04 	ldr.w	r2, [r3, #-4]
 80003be:	f042 0201 	orr.w	r2, r2, #1
 80003c2:	f843 2c04 	str.w	r2, [r3, #-4]
 80003c6:	4b15      	ldr	r3, [pc, #84]	; (800041c <cpuInit+0x108>)
 80003c8:	681a      	ldr	r2, [r3, #0]
 80003ca:	f042 0201 	orr.w	r2, r2, #1
 80003ce:	601a      	str	r2, [r3, #0]
 80003d0:	681a      	ldr	r2, [r3, #0]
 80003d2:	0792      	lsls	r2, r2, #30
 80003d4:	d5fc      	bpl.n	80003d0 <cpuInit+0xbc>
 80003d6:	4b12      	ldr	r3, [pc, #72]	; (8000420 <cpuInit+0x10c>)
 80003d8:	681a      	ldr	r2, [r3, #0]
 80003da:	2a00      	cmp	r2, #0
 80003dc:	d1fc      	bne.n	80003d8 <cpuInit+0xc4>
 80003de:	f245 5155 	movw	r1, #21845	; 0x5555
 80003e2:	4b10      	ldr	r3, [pc, #64]	; (8000424 <cpuInit+0x110>)
 80003e4:	8019      	strh	r1, [r3, #0]
 80003e6:	4910      	ldr	r1, [pc, #64]	; (8000428 <cpuInit+0x114>)
 80003e8:	700a      	strb	r2, [r1, #0]
 80003ea:	f44f 6180 	mov.w	r1, #1024	; 0x400
 80003ee:	4a0f      	ldr	r2, [pc, #60]	; (800042c <cpuInit+0x118>)
 80003f0:	8011      	strh	r1, [r2, #0]
 80003f2:	f64a 22aa 	movw	r2, #43690	; 0xaaaa
 80003f6:	801a      	strh	r2, [r3, #0]
 80003f8:	f64c 42cc 	movw	r2, #52428	; 0xcccc
 80003fc:	801a      	strh	r2, [r3, #0]
 80003fe:	4770      	bx	lr
 8000400:	40022000 	.word	0x40022000
 8000404:	40021000 	.word	0x40021000
 8000408:	40021018 	.word	0x40021018
 800040c:	e000ed0c 	.word	0xe000ed0c
 8000410:	05fa0700 	.word	0x05fa0700
 8000414:	e000ed22 	.word	0xe000ed22
 8000418:	e000e014 	.word	0xe000e014
 800041c:	40021024 	.word	0x40021024
 8000420:	4000300c 	.word	0x4000300c
 8000424:	40003000 	.word	0x40003000
 8000428:	40003004 	.word	0x40003004
 800042c:	40003008 	.word	0x40003008

08000430 <delay>:
 8000430:	4a0a      	ldr	r2, [pc, #40]	; (800045c <delay+0x2c>)
 8000432:	00c0      	lsls	r0, r0, #3
 8000434:	6813      	ldr	r3, [r2, #0]
 8000436:	4283      	cmp	r3, r0
 8000438:	d306      	bcc.n	8000448 <delay+0x18>
 800043a:	1a18      	subs	r0, r3, r0
 800043c:	6811      	ldr	r1, [r2, #0]
 800043e:	4288      	cmp	r0, r1
 8000440:	d20a      	bcs.n	8000458 <delay+0x28>
 8000442:	428b      	cmp	r3, r1
 8000444:	d2fa      	bcs.n	800043c <delay+0xc>
 8000446:	4770      	bx	lr
 8000448:	f503 51fa 	add.w	r1, r3, #8000	; 0x1f40
 800044c:	1a08      	subs	r0, r1, r0
 800044e:	6811      	ldr	r1, [r2, #0]
 8000450:	4288      	cmp	r0, r1
 8000452:	d9fc      	bls.n	800044e <delay+0x1e>
 8000454:	428b      	cmp	r3, r1
 8000456:	d2fa      	bcs.n	800044e <delay+0x1e>
 8000458:	4770      	bx	lr
 800045a:	bf00      	nop
 800045c:	e000e018 	.word	0xe000e018

08000460 <swoPutChar>:
 8000460:	4b06      	ldr	r3, [pc, #24]	; (800047c <swoPutChar+0x1c>)
 8000462:	681a      	ldr	r2, [r3, #0]
 8000464:	f04f 7380 	mov.w	r3, #16777216	; 0x1000000
 8000468:	681b      	ldr	r3, [r3, #0]
 800046a:	421a      	tst	r2, r3
 800046c:	d005      	beq.n	800047a <swoPutChar+0x1a>
 800046e:	f04f 4360 	mov.w	r3, #3758096384	; 0xe0000000
 8000472:	681a      	ldr	r2, [r3, #0]
 8000474:	2a00      	cmp	r2, #0
 8000476:	d0fc      	beq.n	8000472 <swoPutChar+0x12>
 8000478:	7018      	strb	r0, [r3, #0]
 800047a:	4770      	bx	lr
 800047c:	e000edfc 	.word	0xe000edfc

08000480 <swoPutString>:
 8000480:	4601      	mov	r1, r0
 8000482:	b508      	push	{r3, lr}
 8000484:	f811 0b01 	ldrb.w	r0, [r1], #1
 8000488:	b900      	cbnz	r0, 800048c <swoPutString+0xc>
 800048a:	bd08      	pop	{r3, pc}
 800048c:	f7ff ffe8 	bl	8000460 <swoPutChar>
 8000490:	e7f8      	b.n	8000484 <swoPutString+0x4>

08000492 <hex2char>:
 8000492:	b2c3      	uxtb	r3, r0
 8000494:	2809      	cmp	r0, #9
 8000496:	bf94      	ite	ls
 8000498:	f103 0030 	addls.w	r0, r3, #48	; 0x30
 800049c:	f103 0037 	addhi.w	r0, r3, #55	; 0x37
 80004a0:	b2c0      	uxtb	r0, r0
 80004a2:	4770      	bx	lr

080004a4 <hex2str>:
 80004a4:	b507      	push	{r0, r1, r2, lr}
 80004a6:	4602      	mov	r2, r0
 80004a8:	0b00      	lsrs	r0, r0, #12
 80004aa:	f7ff fff2 	bl	8000492 <hex2char>
 80004ae:	f88d 0000 	strb.w	r0, [sp]
 80004b2:	f3c2 2003 	ubfx	r0, r2, #8, #4
 80004b6:	f7ff ffec 	bl	8000492 <hex2char>
 80004ba:	f88d 0001 	strb.w	r0, [sp, #1]
 80004be:	f3c2 1003 	ubfx	r0, r2, #4, #4
 80004c2:	f7ff ffe6 	bl	8000492 <hex2char>
 80004c6:	f88d 0002 	strb.w	r0, [sp, #2]
 80004ca:	f002 000f 	and.w	r0, r2, #15
 80004ce:	f7ff ffe0 	bl	8000492 <hex2char>
 80004d2:	f242 033a 	movw	r3, #8250	; 0x203a
 80004d6:	f8ad 3004 	strh.w	r3, [sp, #4]
 80004da:	2300      	movs	r3, #0
 80004dc:	f88d 0003 	strb.w	r0, [sp, #3]
 80004e0:	4668      	mov	r0, sp
 80004e2:	f88d 3006 	strb.w	r3, [sp, #6]
 80004e6:	f7ff ffcb 	bl	8000480 <swoPutString>
 80004ea:	b003      	add	sp, #12
 80004ec:	f85d fb04 	ldr.w	pc, [sp], #4

080004f0 <newLine>:
 80004f0:	230a      	movs	r3, #10
 80004f2:	b507      	push	{r0, r1, r2, lr}
 80004f4:	a802      	add	r0, sp, #8
 80004f6:	f820 3d04 	strh.w	r3, [r0, #-4]!
 80004fa:	f7ff ffc1 	bl	8000480 <swoPutString>
 80004fe:	b003      	add	sp, #12
 8000500:	f85d fb04 	ldr.w	pc, [sp], #4

08000504 <main>:
 8000504:	b580      	push	{r7, lr}
 8000506:	f000 fb0d 	bl	8000b24 <tftInit>
 800050a:	2210      	movs	r2, #16
 800050c:	481c      	ldr	r0, [pc, #112]	; (8000580 <main+0x7c>)
 800050e:	4611      	mov	r1, r2
 8000510:	f000 fb66 	bl	8000be0 <tftBmpDraw>
 8000514:	2210      	movs	r2, #16
 8000516:	21a8      	movs	r1, #168	; 0xa8
 8000518:	4819      	ldr	r0, [pc, #100]	; (8000580 <main+0x7c>)
 800051a:	f000 fb61 	bl	8000be0 <tftBmpDraw>
 800051e:	f44f 7282 	mov.w	r2, #260	; 0x104
 8000522:	2110      	movs	r1, #16
 8000524:	4816      	ldr	r0, [pc, #88]	; (8000580 <main+0x7c>)
 8000526:	f000 fb5b 	bl	8000be0 <tftBmpDraw>
 800052a:	f44f 7282 	mov.w	r2, #260	; 0x104
 800052e:	21a8      	movs	r1, #168	; 0xa8
 8000530:	4813      	ldr	r0, [pc, #76]	; (8000580 <main+0x7c>)
 8000532:	f000 fb55 	bl	8000be0 <tftBmpDraw>
 8000536:	4e13      	ldr	r6, [pc, #76]	; (8000584 <main+0x80>)
 8000538:	4d13      	ldr	r5, [pc, #76]	; (8000588 <main+0x84>)
 800053a:	4f14      	ldr	r7, [pc, #80]	; (800058c <main+0x88>)
 800053c:	782b      	ldrb	r3, [r5, #0]
 800053e:	5cf0      	ldrb	r0, [r6, r3]
 8000540:	f000 fb2a 	bl	8000b98 <tftReadId>
 8000544:	782c      	ldrb	r4, [r5, #0]
 8000546:	5d30      	ldrb	r0, [r6, r4]
 8000548:	f7ff ffac 	bl	80004a4 <hex2str>
 800054c:	8838      	ldrh	r0, [r7, #0]
 800054e:	f7ff ffa9 	bl	80004a4 <hex2str>
 8000552:	4b0f      	ldr	r3, [pc, #60]	; (8000590 <main+0x8c>)
 8000554:	3401      	adds	r4, #1
 8000556:	8818      	ldrh	r0, [r3, #0]
 8000558:	f7ff ffa4 	bl	80004a4 <hex2str>
 800055c:	4b0d      	ldr	r3, [pc, #52]	; (8000594 <main+0x90>)
 800055e:	b2e4      	uxtb	r4, r4
 8000560:	8818      	ldrh	r0, [r3, #0]
 8000562:	f7ff ff9f 	bl	80004a4 <hex2str>
 8000566:	f7ff ffc3 	bl	80004f0 <newLine>
 800056a:	2c11      	cmp	r4, #17
 800056c:	bf88      	it	hi
 800056e:	2300      	movhi	r3, #0
 8000570:	f44f 707a 	mov.w	r0, #1000	; 0x3e8
 8000574:	bf94      	ite	ls
 8000576:	702c      	strbls	r4, [r5, #0]
 8000578:	702b      	strbhi	r3, [r5, #0]
 800057a:	f7ff fe92 	bl	80002a2 <kthreadSleep>
 800057e:	e7dd      	b.n	800053c <main+0x38>
 8000580:	08000c32 	.word	0x08000c32
 8000584:	08000c20 	.word	0x08000c20
 8000588:	20000040 	.word	0x20000040
 800058c:	200002e8 	.word	0x200002e8
 8000590:	200002ec 	.word	0x200002ec
 8000594:	200002ea 	.word	0x200002ea

08000598 <pinInit>:
 8000598:	2008      	movs	r0, #8
 800059a:	b530      	push	{r4, r5, lr}
 800059c:	4b68      	ldr	r3, [pc, #416]	; (8000740 <pinInit+0x1a8>)
 800059e:	2401      	movs	r4, #1
 80005a0:	681a      	ldr	r2, [r3, #0]
 80005a2:	4d68      	ldr	r5, [pc, #416]	; (8000744 <pinInit+0x1ac>)
 80005a4:	f360 0203 	bfi	r2, r0, #0, #4
 80005a8:	601a      	str	r2, [r3, #0]
 80005aa:	2203      	movs	r2, #3
 80005ac:	6819      	ldr	r1, [r3, #0]
 80005ae:	f362 1107 	bfi	r1, r2, #4, #4
 80005b2:	6019      	str	r1, [r3, #0]
 80005b4:	6819      	ldr	r1, [r3, #0]
 80005b6:	f362 210b 	bfi	r1, r2, #8, #4
 80005ba:	6019      	str	r1, [r3, #0]
 80005bc:	6819      	ldr	r1, [r3, #0]
 80005be:	f362 310f 	bfi	r1, r2, #12, #4
 80005c2:	6019      	str	r1, [r3, #0]
 80005c4:	6819      	ldr	r1, [r3, #0]
 80005c6:	f362 4113 	bfi	r1, r2, #16, #4
 80005ca:	6019      	str	r1, [r3, #0]
 80005cc:	6819      	ldr	r1, [r3, #0]
 80005ce:	f362 5117 	bfi	r1, r2, #20, #4
 80005d2:	6019      	str	r1, [r3, #0]
 80005d4:	6819      	ldr	r1, [r3, #0]
 80005d6:	f362 611b 	bfi	r1, r2, #24, #4
 80005da:	6019      	str	r1, [r3, #0]
 80005dc:	6819      	ldr	r1, [r3, #0]
 80005de:	f362 711f 	bfi	r1, r2, #28, #4
 80005e2:	6019      	str	r1, [r3, #0]
 80005e4:	6859      	ldr	r1, [r3, #4]
 80005e6:	f362 0103 	bfi	r1, r2, #0, #4
 80005ea:	6059      	str	r1, [r3, #4]
 80005ec:	6859      	ldr	r1, [r3, #4]
 80005ee:	f362 1107 	bfi	r1, r2, #4, #4
 80005f2:	6059      	str	r1, [r3, #4]
 80005f4:	6859      	ldr	r1, [r3, #4]
 80005f6:	f362 210b 	bfi	r1, r2, #8, #4
 80005fa:	6059      	str	r1, [r3, #4]
 80005fc:	6859      	ldr	r1, [r3, #4]
 80005fe:	f362 310f 	bfi	r1, r2, #12, #4
 8000602:	6059      	str	r1, [r3, #4]
 8000604:	6859      	ldr	r1, [r3, #4]
 8000606:	f362 4113 	bfi	r1, r2, #16, #4
 800060a:	6059      	str	r1, [r3, #4]
 800060c:	6859      	ldr	r1, [r3, #4]
 800060e:	f360 711f 	bfi	r1, r0, #28, #4
 8000612:	6059      	str	r1, [r3, #4]
 8000614:	4b4c      	ldr	r3, [pc, #304]	; (8000748 <pinInit+0x1b0>)
 8000616:	601c      	str	r4, [r3, #0]
 8000618:	4b4c      	ldr	r3, [pc, #304]	; (800074c <pinInit+0x1b4>)
 800061a:	6819      	ldr	r1, [r3, #0]
 800061c:	f362 0103 	bfi	r1, r2, #0, #4
 8000620:	6019      	str	r1, [r3, #0]
 8000622:	6819      	ldr	r1, [r3, #0]
 8000624:	f362 1107 	bfi	r1, r2, #4, #4
 8000628:	6019      	str	r1, [r3, #0]
 800062a:	6819      	ldr	r1, [r3, #0]
 800062c:	f362 210b 	bfi	r1, r2, #8, #4
 8000630:	6019      	str	r1, [r3, #0]
 8000632:	6819      	ldr	r1, [r3, #0]
 8000634:	f360 310f 	bfi	r1, r0, #12, #4
 8000638:	6019      	str	r1, [r3, #0]
 800063a:	4945      	ldr	r1, [pc, #276]	; (8000750 <pinInit+0x1b8>)
 800063c:	600c      	str	r4, [r1, #0]
 800063e:	6819      	ldr	r1, [r3, #0]
 8000640:	f360 4113 	bfi	r1, r0, #16, #4
 8000644:	6019      	str	r1, [r3, #0]
 8000646:	4943      	ldr	r1, [pc, #268]	; (8000754 <pinInit+0x1bc>)
 8000648:	600c      	str	r4, [r1, #0]
 800064a:	6819      	ldr	r1, [r3, #0]
 800064c:	f360 5117 	bfi	r1, r0, #20, #4
 8000650:	6019      	str	r1, [r3, #0]
 8000652:	6819      	ldr	r1, [r3, #0]
 8000654:	f360 611b 	bfi	r1, r0, #24, #4
 8000658:	6019      	str	r1, [r3, #0]
 800065a:	6819      	ldr	r1, [r3, #0]
 800065c:	f362 711f 	bfi	r1, r2, #28, #4
 8000660:	6019      	str	r1, [r3, #0]
 8000662:	493d      	ldr	r1, [pc, #244]	; (8000758 <pinInit+0x1c0>)
 8000664:	680b      	ldr	r3, [r1, #0]
 8000666:	f360 0303 	bfi	r3, r0, #0, #4
 800066a:	600b      	str	r3, [r1, #0]
 800066c:	2300      	movs	r3, #0
 800066e:	602b      	str	r3, [r5, #0]
 8000670:	680d      	ldr	r5, [r1, #0]
 8000672:	f360 1507 	bfi	r5, r0, #4, #4
 8000676:	600d      	str	r5, [r1, #0]
 8000678:	4d38      	ldr	r5, [pc, #224]	; (800075c <pinInit+0x1c4>)
 800067a:	602b      	str	r3, [r5, #0]
 800067c:	680d      	ldr	r5, [r1, #0]
 800067e:	f362 250b 	bfi	r5, r2, #8, #4
 8000682:	600d      	str	r5, [r1, #0]
 8000684:	680d      	ldr	r5, [r1, #0]
 8000686:	f362 350f 	bfi	r5, r2, #12, #4
 800068a:	600d      	str	r5, [r1, #0]
 800068c:	680d      	ldr	r5, [r1, #0]
 800068e:	f362 4513 	bfi	r5, r2, #16, #4
 8000692:	600d      	str	r5, [r1, #0]
 8000694:	680d      	ldr	r5, [r1, #0]
 8000696:	f362 5517 	bfi	r5, r2, #20, #4
 800069a:	600d      	str	r5, [r1, #0]
 800069c:	680d      	ldr	r5, [r1, #0]
 800069e:	f362 651b 	bfi	r5, r2, #24, #4
 80006a2:	600d      	str	r5, [r1, #0]
 80006a4:	680d      	ldr	r5, [r1, #0]
 80006a6:	f362 751f 	bfi	r5, r2, #28, #4
 80006aa:	4a2d      	ldr	r2, [pc, #180]	; (8000760 <pinInit+0x1c8>)
 80006ac:	600d      	str	r5, [r1, #0]
 80006ae:	6811      	ldr	r1, [r2, #0]
 80006b0:	f360 5117 	bfi	r1, r0, #20, #4
 80006b4:	6011      	str	r1, [r2, #0]
 80006b6:	492b      	ldr	r1, [pc, #172]	; (8000764 <pinInit+0x1cc>)
 80006b8:	600b      	str	r3, [r1, #0]
 80006ba:	6811      	ldr	r1, [r2, #0]
 80006bc:	f360 611b 	bfi	r1, r0, #24, #4
 80006c0:	6011      	str	r1, [r2, #0]
 80006c2:	4929      	ldr	r1, [pc, #164]	; (8000768 <pinInit+0x1d0>)
 80006c4:	600b      	str	r3, [r1, #0]
 80006c6:	6811      	ldr	r1, [r2, #0]
 80006c8:	f360 711f 	bfi	r1, r0, #28, #4
 80006cc:	6011      	str	r1, [r2, #0]
 80006ce:	4a27      	ldr	r2, [pc, #156]	; (800076c <pinInit+0x1d4>)
 80006d0:	6013      	str	r3, [r2, #0]
 80006d2:	4a27      	ldr	r2, [pc, #156]	; (8000770 <pinInit+0x1d8>)
 80006d4:	6811      	ldr	r1, [r2, #0]
 80006d6:	f360 0103 	bfi	r1, r0, #0, #4
 80006da:	6011      	str	r1, [r2, #0]
 80006dc:	4925      	ldr	r1, [pc, #148]	; (8000774 <pinInit+0x1dc>)
 80006de:	600b      	str	r3, [r1, #0]
 80006e0:	6811      	ldr	r1, [r2, #0]
 80006e2:	f360 1107 	bfi	r1, r0, #4, #4
 80006e6:	6011      	str	r1, [r2, #0]
 80006e8:	4a23      	ldr	r2, [pc, #140]	; (8000778 <pinInit+0x1e0>)
 80006ea:	6013      	str	r3, [r2, #0]
 80006ec:	f5a2 427f 	sub.w	r2, r2, #65280	; 0xff00
 80006f0:	3adc      	subs	r2, #220	; 0xdc
 80006f2:	6013      	str	r3, [r2, #0]
 80006f4:	6053      	str	r3, [r2, #4]
 80006f6:	f842 3c20 	str.w	r3, [r2, #-32]
 80006fa:	6093      	str	r3, [r2, #8]
 80006fc:	f842 3c24 	str.w	r3, [r2, #-36]
 8000700:	60d3      	str	r3, [r2, #12]
 8000702:	f842 3c28 	str.w	r3, [r2, #-40]
 8000706:	6113      	str	r3, [r2, #16]
 8000708:	f5a2 4200 	sub.w	r2, r2, #32768	; 0x8000
 800070c:	3a0c      	subs	r2, #12
 800070e:	6013      	str	r3, [r2, #0]
 8000710:	f502 4200 	add.w	r2, r2, #32768	; 0x8000
 8000714:	3220      	adds	r2, #32
 8000716:	6013      	str	r3, [r2, #0]
 8000718:	f5a2 4200 	sub.w	r2, r2, #32768	; 0x8000
 800071c:	3a24      	subs	r2, #36	; 0x24
 800071e:	6013      	str	r3, [r2, #0]
 8000720:	6093      	str	r3, [r2, #8]
 8000722:	f842 3c04 	str.w	r3, [r2, #-4]
 8000726:	60d3      	str	r3, [r2, #12]
 8000728:	f842 3c08 	str.w	r3, [r2, #-8]
 800072c:	6113      	str	r3, [r2, #16]
 800072e:	4b13      	ldr	r3, [pc, #76]	; (800077c <pinInit+0x1e4>)
 8000730:	601c      	str	r4, [r3, #0]
 8000732:	621c      	str	r4, [r3, #32]
 8000734:	f843 4c04 	str.w	r4, [r3, #-4]
 8000738:	625c      	str	r4, [r3, #36]	; 0x24
 800073a:	f843 4c08 	str.w	r4, [r3, #-8]
 800073e:	bd30      	pop	{r4, r5, pc}
 8000740:	40010800 	.word	0x40010800
 8000744:	422181a0 	.word	0x422181a0
 8000748:	422101bc 	.word	0x422101bc
 800074c:	40010c00 	.word	0x40010c00
 8000750:	4221818c 	.word	0x4221818c
 8000754:	42218190 	.word	0x42218190
 8000758:	40010c04 	.word	0x40010c04
 800075c:	422181a4 	.word	0x422181a4
 8000760:	40011004 	.word	0x40011004
 8000764:	422201b4 	.word	0x422201b4
 8000768:	422201b8 	.word	0x422201b8
 800076c:	422201bc 	.word	0x422201bc
 8000770:	40011400 	.word	0x40011400
 8000774:	42228180 	.word	0x42228180
 8000778:	42228184 	.word	0x42228184
 800077c:	4221018c 	.word	0x4221018c

08000780 <tftWrite>:
 8000780:	2200      	movs	r2, #0
 8000782:	4924      	ldr	r1, [pc, #144]	; (8000814 <tftWrite+0x94>)
 8000784:	4b24      	ldr	r3, [pc, #144]	; (8000818 <tftWrite+0x98>)
 8000786:	b510      	push	{r4, lr}
 8000788:	0bc4      	lsrs	r4, r0, #15
 800078a:	601a      	str	r2, [r3, #0]
 800078c:	600c      	str	r4, [r1, #0]
 800078e:	f3c0 3480 	ubfx	r4, r0, #14, #1
 8000792:	604c      	str	r4, [r1, #4]
 8000794:	f3c0 3440 	ubfx	r4, r0, #13, #1
 8000798:	f841 4c20 	str.w	r4, [r1, #-32]
 800079c:	f3c0 3400 	ubfx	r4, r0, #12, #1
 80007a0:	608c      	str	r4, [r1, #8]
 80007a2:	f3c0 24c0 	ubfx	r4, r0, #11, #1
 80007a6:	f841 4c24 	str.w	r4, [r1, #-36]
 80007aa:	f3c0 2480 	ubfx	r4, r0, #10, #1
 80007ae:	60cc      	str	r4, [r1, #12]
 80007b0:	f3c0 2440 	ubfx	r4, r0, #9, #1
 80007b4:	f841 4c28 	str.w	r4, [r1, #-40]
 80007b8:	f3c0 2400 	ubfx	r4, r0, #8, #1
 80007bc:	610c      	str	r4, [r1, #16]
 80007be:	f5a1 4100 	sub.w	r1, r1, #32768	; 0x8000
 80007c2:	f3c0 14c0 	ubfx	r4, r0, #7, #1
 80007c6:	390c      	subs	r1, #12
 80007c8:	600c      	str	r4, [r1, #0]
 80007ca:	f501 4100 	add.w	r1, r1, #32768	; 0x8000
 80007ce:	f3c0 1480 	ubfx	r4, r0, #6, #1
 80007d2:	3120      	adds	r1, #32
 80007d4:	600c      	str	r4, [r1, #0]
 80007d6:	f5a1 4100 	sub.w	r1, r1, #32768	; 0x8000
 80007da:	3924      	subs	r1, #36	; 0x24
 80007dc:	f3c0 1440 	ubfx	r4, r0, #5, #1
 80007e0:	600c      	str	r4, [r1, #0]
 80007e2:	f3c0 1400 	ubfx	r4, r0, #4, #1
 80007e6:	608c      	str	r4, [r1, #8]
 80007e8:	f3c0 04c0 	ubfx	r4, r0, #3, #1
 80007ec:	f841 4c04 	str.w	r4, [r1, #-4]
 80007f0:	f3c0 0480 	ubfx	r4, r0, #2, #1
 80007f4:	60cc      	str	r4, [r1, #12]
 80007f6:	f3c0 0440 	ubfx	r4, r0, #1, #1
 80007fa:	f000 0001 	and.w	r0, r0, #1
 80007fe:	f841 4c08 	str.w	r4, [r1, #-8]
 8000802:	6108      	str	r0, [r1, #16]
 8000804:	f841 2c10 	str.w	r2, [r1, #-16]
 8000808:	2201      	movs	r2, #1
 800080a:	f841 2c10 	str.w	r2, [r1, #-16]
 800080e:	601a      	str	r2, [r3, #0]
 8000810:	bd10      	pop	{r4, pc}
 8000812:	bf00      	nop
 8000814:	422181a8 	.word	0x422181a8
 8000818:	42210184 	.word	0x42210184

0800081c <tftRegWrite>:
 800081c:	2200      	movs	r2, #0
 800081e:	4b02      	ldr	r3, [pc, #8]	; (8000828 <tftRegWrite+0xc>)
 8000820:	601a      	str	r2, [r3, #0]
 8000822:	f7ff bfad 	b.w	8000780 <tftWrite>
 8000826:	bf00      	nop
 8000828:	422101b0 	.word	0x422101b0

0800082c <tftDatWrite>:
 800082c:	2201      	movs	r2, #1
 800082e:	4b02      	ldr	r3, [pc, #8]	; (8000838 <tftDatWrite+0xc>)
 8000830:	601a      	str	r2, [r3, #0]
 8000832:	f7ff bfa5 	b.w	8000780 <tftWrite>
 8000836:	bf00      	nop
 8000838:	422101b0 	.word	0x422101b0

0800083c <tftPinRead>:
 800083c:	2308      	movs	r3, #8
 800083e:	4a32      	ldr	r2, [pc, #200]	; (8000908 <tftPinRead+0xcc>)
 8000840:	6811      	ldr	r1, [r2, #0]
 8000842:	f363 4113 	bfi	r1, r3, #16, #4
 8000846:	6011      	str	r1, [r2, #0]
 8000848:	6811      	ldr	r1, [r2, #0]
 800084a:	f363 5117 	bfi	r1, r3, #20, #4
 800084e:	6011      	str	r1, [r2, #0]
 8000850:	6811      	ldr	r1, [r2, #0]
 8000852:	f363 611b 	bfi	r1, r3, #24, #4
 8000856:	6011      	str	r1, [r2, #0]
 8000858:	6811      	ldr	r1, [r2, #0]
 800085a:	f363 711f 	bfi	r1, r3, #28, #4
 800085e:	6011      	str	r1, [r2, #0]
 8000860:	6851      	ldr	r1, [r2, #4]
 8000862:	f363 0103 	bfi	r1, r3, #0, #4
 8000866:	6051      	str	r1, [r2, #4]
 8000868:	6851      	ldr	r1, [r2, #4]
 800086a:	f363 1107 	bfi	r1, r3, #4, #4
 800086e:	6051      	str	r1, [r2, #4]
 8000870:	6851      	ldr	r1, [r2, #4]
 8000872:	f363 210b 	bfi	r1, r3, #8, #4
 8000876:	6051      	str	r1, [r2, #4]
 8000878:	f502 6280 	add.w	r2, r2, #1024	; 0x400
 800087c:	6811      	ldr	r1, [r2, #0]
 800087e:	f363 0103 	bfi	r1, r3, #0, #4
 8000882:	6011      	str	r1, [r2, #0]
 8000884:	6811      	ldr	r1, [r2, #0]
 8000886:	f363 1107 	bfi	r1, r3, #4, #4
 800088a:	6011      	str	r1, [r2, #0]
 800088c:	6811      	ldr	r1, [r2, #0]
 800088e:	f363 210b 	bfi	r1, r3, #8, #4
 8000892:	6011      	str	r1, [r2, #0]
 8000894:	6851      	ldr	r1, [r2, #4]
 8000896:	f363 210b 	bfi	r1, r3, #8, #4
 800089a:	6051      	str	r1, [r2, #4]
 800089c:	6851      	ldr	r1, [r2, #4]
 800089e:	f363 310f 	bfi	r1, r3, #12, #4
 80008a2:	6051      	str	r1, [r2, #4]
 80008a4:	6851      	ldr	r1, [r2, #4]
 80008a6:	f363 4113 	bfi	r1, r3, #16, #4
 80008aa:	6051      	str	r1, [r2, #4]
 80008ac:	6851      	ldr	r1, [r2, #4]
 80008ae:	f363 5117 	bfi	r1, r3, #20, #4
 80008b2:	6051      	str	r1, [r2, #4]
 80008b4:	6851      	ldr	r1, [r2, #4]
 80008b6:	f363 611b 	bfi	r1, r3, #24, #4
 80008ba:	6051      	str	r1, [r2, #4]
 80008bc:	6851      	ldr	r1, [r2, #4]
 80008be:	f363 711f 	bfi	r1, r3, #28, #4
 80008c2:	2301      	movs	r3, #1
 80008c4:	6051      	str	r1, [r2, #4]
 80008c6:	4a11      	ldr	r2, [pc, #68]	; (800090c <tftPinRead+0xd0>)
 80008c8:	6013      	str	r3, [r2, #0]
 80008ca:	6053      	str	r3, [r2, #4]
 80008cc:	f842 3c20 	str.w	r3, [r2, #-32]
 80008d0:	6093      	str	r3, [r2, #8]
 80008d2:	f842 3c24 	str.w	r3, [r2, #-36]
 80008d6:	60d3      	str	r3, [r2, #12]
 80008d8:	f842 3c28 	str.w	r3, [r2, #-40]
 80008dc:	6113      	str	r3, [r2, #16]
 80008de:	f5a2 4200 	sub.w	r2, r2, #32768	; 0x8000
 80008e2:	3a0c      	subs	r2, #12
 80008e4:	6013      	str	r3, [r2, #0]
 80008e6:	f502 4200 	add.w	r2, r2, #32768	; 0x8000
 80008ea:	3220      	adds	r2, #32
 80008ec:	6013      	str	r3, [r2, #0]
 80008ee:	f5a2 4200 	sub.w	r2, r2, #32768	; 0x8000
 80008f2:	3a24      	subs	r2, #36	; 0x24
 80008f4:	6013      	str	r3, [r2, #0]
 80008f6:	6093      	str	r3, [r2, #8]
 80008f8:	f842 3c04 	str.w	r3, [r2, #-4]
 80008fc:	60d3      	str	r3, [r2, #12]
 80008fe:	f842 3c08 	str.w	r3, [r2, #-8]
 8000902:	6113      	str	r3, [r2, #16]
 8000904:	4770      	bx	lr
 8000906:	bf00      	nop
 8000908:	40010800 	.word	0x40010800
 800090c:	422181a8 	.word	0x422181a8

08000910 <tftPinWrite>:
 8000910:	2303      	movs	r3, #3
 8000912:	4a22      	ldr	r2, [pc, #136]	; (800099c <tftPinWrite+0x8c>)
 8000914:	6811      	ldr	r1, [r2, #0]
 8000916:	f363 4113 	bfi	r1, r3, #16, #4
 800091a:	6011      	str	r1, [r2, #0]
 800091c:	6811      	ldr	r1, [r2, #0]
 800091e:	f363 5117 	bfi	r1, r3, #20, #4
 8000922:	6011      	str	r1, [r2, #0]
 8000924:	6811      	ldr	r1, [r2, #0]
 8000926:	f363 611b 	bfi	r1, r3, #24, #4
 800092a:	6011      	str	r1, [r2, #0]
 800092c:	6811      	ldr	r1, [r2, #0]
 800092e:	f363 711f 	bfi	r1, r3, #28, #4
 8000932:	6011      	str	r1, [r2, #0]
 8000934:	6851      	ldr	r1, [r2, #4]
 8000936:	f363 0103 	bfi	r1, r3, #0, #4
 800093a:	6051      	str	r1, [r2, #4]
 800093c:	6851      	ldr	r1, [r2, #4]
 800093e:	f363 1107 	bfi	r1, r3, #4, #4
 8000942:	6051      	str	r1, [r2, #4]
 8000944:	6851      	ldr	r1, [r2, #4]
 8000946:	f363 210b 	bfi	r1, r3, #8, #4
 800094a:	6051      	str	r1, [r2, #4]
 800094c:	f502 6280 	add.w	r2, r2, #1024	; 0x400
 8000950:	6811      	ldr	r1, [r2, #0]
 8000952:	f363 0103 	bfi	r1, r3, #0, #4
 8000956:	6011      	str	r1, [r2, #0]
 8000958:	6811      	ldr	r1, [r2, #0]
 800095a:	f363 1107 	bfi	r1, r3, #4, #4
 800095e:	6011      	str	r1, [r2, #0]
 8000960:	6811      	ldr	r1, [r2, #0]
 8000962:	f363 210b 	bfi	r1, r3, #8, #4
 8000966:	6011      	str	r1, [r2, #0]
 8000968:	6851      	ldr	r1, [r2, #4]
 800096a:	f363 210b 	bfi	r1, r3, #8, #4
 800096e:	6051      	str	r1, [r2, #4]
 8000970:	6851      	ldr	r1, [r2, #4]
 8000972:	f363 310f 	bfi	r1, r3, #12, #4
 8000976:	6051      	str	r1, [r2, #4]
 8000978:	6851      	ldr	r1, [r2, #4]
 800097a:	f363 4113 	bfi	r1, r3, #16, #4
 800097e:	6051      	str	r1, [r2, #4]
 8000980:	6851      	ldr	r1, [r2, #4]
 8000982:	f363 5117 	bfi	r1, r3, #20, #4
 8000986:	6051      	str	r1, [r2, #4]
 8000988:	6851      	ldr	r1, [r2, #4]
 800098a:	f363 611b 	bfi	r1, r3, #24, #4
 800098e:	6051      	str	r1, [r2, #4]
 8000990:	6851      	ldr	r1, [r2, #4]
 8000992:	f363 711f 	bfi	r1, r3, #28, #4
 8000996:	6051      	str	r1, [r2, #4]
 8000998:	4770      	bx	lr
 800099a:	bf00      	nop
 800099c:	40010800 	.word	0x40010800

080009a0 <tftRead>:
 80009a0:	b570      	push	{r4, r5, r6, lr}
 80009a2:	f7ff ff4b 	bl	800083c <tftPinRead>
 80009a6:	2201      	movs	r2, #1
 80009a8:	4b2a      	ldr	r3, [pc, #168]	; (8000a54 <tftRead+0xb4>)
 80009aa:	4d2b      	ldr	r5, [pc, #172]	; (8000a58 <tftRead+0xb8>)
 80009ac:	601a      	str	r2, [r3, #0]
 80009ae:	2300      	movs	r3, #0
 80009b0:	482a      	ldr	r0, [pc, #168]	; (8000a5c <tftRead+0xbc>)
 80009b2:	602b      	str	r3, [r5, #0]
 80009b4:	6003      	str	r3, [r0, #0]
 80009b6:	4b2a      	ldr	r3, [pc, #168]	; (8000a60 <tftRead+0xc0>)
 80009b8:	681a      	ldr	r2, [r3, #0]
 80009ba:	f503 6380 	add.w	r3, r3, #1024	; 0x400
 80009be:	f3c2 2480 	ubfx	r4, r2, #10, #1
 80009c2:	06d1      	lsls	r1, r2, #27
 80009c4:	bf48      	it	mi
 80009c6:	f044 0402 	orrmi.w	r4, r4, #2
 80009ca:	0596      	lsls	r6, r2, #22
 80009cc:	bf48      	it	mi
 80009ce:	f044 0404 	orrmi.w	r4, r4, #4
 80009d2:	0691      	lsls	r1, r2, #26
 80009d4:	bf48      	it	mi
 80009d6:	f044 0408 	orrmi.w	r4, r4, #8
 80009da:	681b      	ldr	r3, [r3, #0]
 80009dc:	05d6      	lsls	r6, r2, #23
 80009de:	bf48      	it	mi
 80009e0:	f044 0410 	orrmi.w	r4, r4, #16
 80009e4:	0651      	lsls	r1, r2, #25
 80009e6:	bf48      	it	mi
 80009e8:	f044 0420 	orrmi.w	r4, r4, #32
 80009ec:	041e      	lsls	r6, r3, #16
 80009ee:	bf48      	it	mi
 80009f0:	f044 0440 	orrmi.w	r4, r4, #64	; 0x40
 80009f4:	0611      	lsls	r1, r2, #24
 80009f6:	bf48      	it	mi
 80009f8:	f044 0480 	orrmi.w	r4, r4, #128	; 0x80
 80009fc:	045a      	lsls	r2, r3, #17
 80009fe:	bf48      	it	mi
 8000a00:	f444 7480 	orrmi.w	r4, r4, #256	; 0x100
 8000a04:	07de      	lsls	r6, r3, #31
 8000a06:	bf48      	it	mi
 8000a08:	f444 7400 	orrmi.w	r4, r4, #512	; 0x200
 8000a0c:	0499      	lsls	r1, r3, #18
 8000a0e:	bf48      	it	mi
 8000a10:	f444 6480 	orrmi.w	r4, r4, #1024	; 0x400
 8000a14:	079a      	lsls	r2, r3, #30
 8000a16:	bf48      	it	mi
 8000a18:	f444 6400 	orrmi.w	r4, r4, #2048	; 0x800
 8000a1c:	04de      	lsls	r6, r3, #19
 8000a1e:	f04f 0601 	mov.w	r6, #1
 8000a22:	bf48      	it	mi
 8000a24:	f444 5480 	orrmi.w	r4, r4, #4096	; 0x1000
 8000a28:	0759      	lsls	r1, r3, #29
 8000a2a:	bf48      	it	mi
 8000a2c:	f444 5400 	orrmi.w	r4, r4, #8192	; 0x2000
 8000a30:	051a      	lsls	r2, r3, #20
 8000a32:	bf48      	it	mi
 8000a34:	f444 4480 	orrmi.w	r4, r4, #16384	; 0x4000
 8000a38:	055b      	lsls	r3, r3, #21
 8000a3a:	bf48      	it	mi
 8000a3c:	f444 4400 	orrmi.w	r4, r4, #32768	; 0x8000
 8000a40:	6006      	str	r6, [r0, #0]
 8000a42:	2002      	movs	r0, #2
 8000a44:	f7ff fcf4 	bl	8000430 <delay>
 8000a48:	f7ff ff62 	bl	8000910 <tftPinWrite>
 8000a4c:	602e      	str	r6, [r5, #0]
 8000a4e:	4620      	mov	r0, r4
 8000a50:	bd70      	pop	{r4, r5, r6, pc}
 8000a52:	bf00      	nop
 8000a54:	422101b0 	.word	0x422101b0
 8000a58:	42210184 	.word	0x42210184
 8000a5c:	422101ac 	.word	0x422101ac
 8000a60:	40010808 	.word	0x40010808

08000a64 <tftSetPos>:
 8000a64:	b538      	push	{r3, r4, r5, lr}
 8000a66:	4605      	mov	r5, r0
 8000a68:	460c      	mov	r4, r1
 8000a6a:	202a      	movs	r0, #42	; 0x2a
 8000a6c:	f7ff fed6 	bl	800081c <tftRegWrite>
 8000a70:	0a28      	lsrs	r0, r5, #8
 8000a72:	f7ff fedb 	bl	800082c <tftDatWrite>
 8000a76:	b2e8      	uxtb	r0, r5
 8000a78:	f7ff fed8 	bl	800082c <tftDatWrite>
 8000a7c:	2001      	movs	r0, #1
 8000a7e:	f7ff fed5 	bl	800082c <tftDatWrite>
 8000a82:	203f      	movs	r0, #63	; 0x3f
 8000a84:	f7ff fed2 	bl	800082c <tftDatWrite>
 8000a88:	202b      	movs	r0, #43	; 0x2b
 8000a8a:	f7ff fec7 	bl	800081c <tftRegWrite>
 8000a8e:	0a20      	lsrs	r0, r4, #8
 8000a90:	f7ff fecc 	bl	800082c <tftDatWrite>
 8000a94:	b2e0      	uxtb	r0, r4
 8000a96:	f7ff fec9 	bl	800082c <tftDatWrite>
 8000a9a:	2001      	movs	r0, #1
 8000a9c:	f7ff fec6 	bl	800082c <tftDatWrite>
 8000aa0:	e8bd 4038 	ldmia.w	sp!, {r3, r4, r5, lr}
 8000aa4:	20df      	movs	r0, #223	; 0xdf
 8000aa6:	f7ff bec1 	b.w	800082c <tftDatWrite>

08000aaa <tftSetWindow>:
 8000aaa:	b5f8      	push	{r3, r4, r5, r6, r7, lr}
 8000aac:	8807      	ldrh	r7, [r0, #0]
 8000aae:	8885      	ldrh	r5, [r0, #4]
 8000ab0:	8846      	ldrh	r6, [r0, #2]
 8000ab2:	88c4      	ldrh	r4, [r0, #6]
 8000ab4:	443d      	add	r5, r7
 8000ab6:	202a      	movs	r0, #42	; 0x2a
 8000ab8:	f7ff feb0 	bl	800081c <tftRegWrite>
 8000abc:	3d01      	subs	r5, #1
 8000abe:	0a38      	lsrs	r0, r7, #8
 8000ac0:	b2ad      	uxth	r5, r5
 8000ac2:	f7ff feb3 	bl	800082c <tftDatWrite>
 8000ac6:	b2f8      	uxtb	r0, r7
 8000ac8:	f7ff feb0 	bl	800082c <tftDatWrite>
 8000acc:	0a28      	lsrs	r0, r5, #8
 8000ace:	f7ff fead 	bl	800082c <tftDatWrite>
 8000ad2:	b2e8      	uxtb	r0, r5
 8000ad4:	f7ff feaa 	bl	800082c <tftDatWrite>
 8000ad8:	4434      	add	r4, r6
 8000ada:	202b      	movs	r0, #43	; 0x2b
 8000adc:	f7ff fe9e 	bl	800081c <tftRegWrite>
 8000ae0:	3c01      	subs	r4, #1
 8000ae2:	0a30      	lsrs	r0, r6, #8
 8000ae4:	b2a4      	uxth	r4, r4
 8000ae6:	f7ff fea1 	bl	800082c <tftDatWrite>
 8000aea:	b2f0      	uxtb	r0, r6
 8000aec:	f7ff fe9e 	bl	800082c <tftDatWrite>
 8000af0:	0a20      	lsrs	r0, r4, #8
 8000af2:	f7ff fe9b 	bl	800082c <tftDatWrite>
 8000af6:	b2e0      	uxtb	r0, r4
 8000af8:	e8bd 40f8 	ldmia.w	sp!, {r3, r4, r5, r6, r7, lr}
 8000afc:	f7ff be96 	b.w	800082c <tftDatWrite>

08000b00 <lcdClear>:
 8000b00:	2100      	movs	r1, #0
 8000b02:	b538      	push	{r3, r4, r5, lr}
 8000b04:	4605      	mov	r5, r0
 8000b06:	4608      	mov	r0, r1
 8000b08:	f7ff ffac 	bl	8000a64 <tftSetPos>
 8000b0c:	202c      	movs	r0, #44	; 0x2c
 8000b0e:	f7ff fe85 	bl	800081c <tftRegWrite>
 8000b12:	f44f 3416 	mov.w	r4, #153600	; 0x25800
 8000b16:	4628      	mov	r0, r5
 8000b18:	f7ff fe88 	bl	800082c <tftDatWrite>
 8000b1c:	3c01      	subs	r4, #1
 8000b1e:	d1fa      	bne.n	8000b16 <lcdClear+0x16>
 8000b20:	bd38      	pop	{r3, r4, r5, pc}
	...

08000b24 <tftInit>:
 8000b24:	b570      	push	{r4, r5, r6, lr}
 8000b26:	2401      	movs	r4, #1
 8000b28:	2600      	movs	r6, #0
 8000b2a:	4d1a      	ldr	r5, [pc, #104]	; (8000b94 <tftInit+0x70>)
 8000b2c:	200a      	movs	r0, #10
 8000b2e:	602c      	str	r4, [r5, #0]
 8000b30:	f7ff fbb7 	bl	80002a2 <kthreadSleep>
 8000b34:	602e      	str	r6, [r5, #0]
 8000b36:	200a      	movs	r0, #10
 8000b38:	f7ff fbb3 	bl	80002a2 <kthreadSleep>
 8000b3c:	602c      	str	r4, [r5, #0]
 8000b3e:	2078      	movs	r0, #120	; 0x78
 8000b40:	f7ff fbaf 	bl	80002a2 <kthreadSleep>
 8000b44:	4620      	mov	r0, r4
 8000b46:	f7ff fe69 	bl	800081c <tftRegWrite>
 8000b4a:	2078      	movs	r0, #120	; 0x78
 8000b4c:	f7ff fba9 	bl	80002a2 <kthreadSleep>
 8000b50:	2021      	movs	r0, #33	; 0x21
 8000b52:	f7ff fe63 	bl	800081c <tftRegWrite>
 8000b56:	2036      	movs	r0, #54	; 0x36
 8000b58:	f7ff fe60 	bl	800081c <tftRegWrite>
 8000b5c:	204c      	movs	r0, #76	; 0x4c
 8000b5e:	f7ff fe65 	bl	800082c <tftDatWrite>
 8000b62:	203a      	movs	r0, #58	; 0x3a
 8000b64:	f7ff fe5a 	bl	800081c <tftRegWrite>
 8000b68:	2055      	movs	r0, #85	; 0x55
 8000b6a:	f7ff fe5f 	bl	800082c <tftDatWrite>
 8000b6e:	4631      	mov	r1, r6
 8000b70:	4630      	mov	r0, r6
 8000b72:	f7ff ff77 	bl	8000a64 <tftSetPos>
 8000b76:	2011      	movs	r0, #17
 8000b78:	f7ff fe50 	bl	800081c <tftRegWrite>
 8000b7c:	2078      	movs	r0, #120	; 0x78
 8000b7e:	f7ff fb90 	bl	80002a2 <kthreadSleep>
 8000b82:	2029      	movs	r0, #41	; 0x29
 8000b84:	f7ff fe4a 	bl	800081c <tftRegWrite>
 8000b88:	e8bd 4070 	ldmia.w	sp!, {r4, r5, r6, lr}
 8000b8c:	f64f 70ff 	movw	r0, #65535	; 0xffff
 8000b90:	f7ff bfb6 	b.w	8000b00 <lcdClear>
 8000b94:	4221018c 	.word	0x4221018c

08000b98 <tftReadId>:
 8000b98:	b510      	push	{r4, lr}
 8000b9a:	f7ff fe3f 	bl	800081c <tftRegWrite>
 8000b9e:	f7ff feff 	bl	80009a0 <tftRead>
 8000ba2:	f7ff fefd 	bl	80009a0 <tftRead>
 8000ba6:	4c0b      	ldr	r4, [pc, #44]	; (8000bd4 <tftReadId+0x3c>)
 8000ba8:	0200      	lsls	r0, r0, #8
 8000baa:	8020      	strh	r0, [r4, #0]
 8000bac:	f7ff fef8 	bl	80009a0 <tftRead>
 8000bb0:	8823      	ldrh	r3, [r4, #0]
 8000bb2:	4318      	orrs	r0, r3
 8000bb4:	8020      	strh	r0, [r4, #0]
 8000bb6:	f7ff fef3 	bl	80009a0 <tftRead>
 8000bba:	4c07      	ldr	r4, [pc, #28]	; (8000bd8 <tftReadId+0x40>)
 8000bbc:	0200      	lsls	r0, r0, #8
 8000bbe:	8020      	strh	r0, [r4, #0]
 8000bc0:	f7ff feee 	bl	80009a0 <tftRead>
 8000bc4:	8823      	ldrh	r3, [r4, #0]
 8000bc6:	4318      	orrs	r0, r3
 8000bc8:	8020      	strh	r0, [r4, #0]
 8000bca:	f7ff fee9 	bl	80009a0 <tftRead>
 8000bce:	4b03      	ldr	r3, [pc, #12]	; (8000bdc <tftReadId+0x44>)
 8000bd0:	8018      	strh	r0, [r3, #0]
 8000bd2:	bd10      	pop	{r4, pc}
 8000bd4:	200002e8 	.word	0x200002e8
 8000bd8:	200002ec 	.word	0x200002ec
 8000bdc:	200002ea 	.word	0x200002ea

08000be0 <tftBmpDraw>:
 8000be0:	b573      	push	{r0, r1, r4, r5, r6, lr}
 8000be2:	4b0e      	ldr	r3, [pc, #56]	; (8000c1c <tftBmpDraw+0x3c>)
 8000be4:	4605      	mov	r5, r0
 8000be6:	4668      	mov	r0, sp
 8000be8:	f8ad 1000 	strh.w	r1, [sp]
 8000bec:	f8ad 2002 	strh.w	r2, [sp, #2]
 8000bf0:	9301      	str	r3, [sp, #4]
 8000bf2:	f7ff ff5a 	bl	8000aaa <tftSetWindow>
 8000bf6:	202c      	movs	r0, #44	; 0x2c
 8000bf8:	f7ff fe10 	bl	800081c <tftRegWrite>
 8000bfc:	2400      	movs	r4, #0
 8000bfe:	f64d 06c0 	movw	r6, #55488	; 0xd8c0
 8000c02:	192b      	adds	r3, r5, r4
 8000c04:	5d28      	ldrb	r0, [r5, r4]
 8000c06:	785b      	ldrb	r3, [r3, #1]
 8000c08:	3402      	adds	r4, #2
 8000c0a:	ea43 2000 	orr.w	r0, r3, r0, lsl #8
 8000c0e:	f7ff fe0d 	bl	800082c <tftDatWrite>
 8000c12:	42b4      	cmp	r4, r6
 8000c14:	d1f5      	bne.n	8000c02 <tftBmpDraw+0x22>
 8000c16:	b002      	add	sp, #8
 8000c18:	bd70      	pop	{r4, r5, r6, pc}
 8000c1a:	bf00      	nop
 8000c1c:	00cc0088 	.word	0x00cc0088

08000c20 <commands>:
 8000c20:	0a090504 0e0d0c0b 5452450f da685f56     .........ERTV_h.
 8000c30:	                                         ..

08000c32 <bmpGokon>:
 8000c32:	ffffffff ffffffff ffffffff ffffffff     ................
 8000c42:	ffffffff ffffffff ffffffff ffffffff     ................
 8000c52:	ffffffff ffffffff ffffffff ffffffff     ................
 8000c62:	ffffffff ffffffff ffffffff ffffffff     ................
 8000c72:	ffffffff ffffffff ffffffff ffffffff     ................
 8000c82:	ffffffff ffffffff ffffffff ffffffff     ................
 8000c92:	ffffffff 0c63dfff 518ce739 7deff7bd     ......c.9..Q...}
 8000ca2:	ffffffff ffffffff ffffffff ffffffff     ................
 8000cb2:	ffffffff ffffffff ffffffff ffffffff     ................
 8000cc2:	ffffffff ffffffff ffffffff 5defffff     ...............]
 8000cd2:	14a5d39c ffffffff ffffffff ffffffff     ................
 8000ce2:	ffffffff ffffffff ffffffff ffffffff     ................
 8000cf2:	ffffffff ffffffff ffffffff ffffffff     ................
 8000d02:	ffffffff ffffffff ffffffff ffffffff     ................
 8000d12:	ffffffff ffffffff ffffffff ffffffff     ................
 8000d22:	ffffffff ffffffff ffffffff ffffffff     ................
 8000d32:	ffffffff ffffffff ffffffff ffffffff     ................
 8000d42:	ffffffff ffffffff ffffffff ffffffff     ................
 8000d52:	ffffffff ffffffff ffffffff ffffffff     ................
 8000d62:	ffffffff ffffffff ffffffff ffffffff     ................
 8000d72:	ffffffff ffffffff ffffffff ffffffff     ................
 8000d82:	ffffffff ffffffff ffffffff ffffffff     ................
 8000d92:	ffffffff ffffffff ffffffff ffffffff     ................
 8000da2:	ffffffff d6b5ffff 00000000 82100000     ................
 8000db2:	b2948a52 fffffbde ffffffff ffffffff     R...............
 8000dc2:	ffffffff ffff7def ffffffff ffffffff     .....}..........
 8000dd2:	ffffffff ffffffff 13a5ffff 4108c739     ............9..A
 8000de2:	92940000 ffffffff ffffffff ffffffff     ................
 8000df2:	ffffffff ffffffff ffffffff ffffffff     ................
 8000e02:	ffffffff ffffffff ffffffff ffffffff     ................
 8000e12:	ffffffff ffffffff ffffffff ffffffff     ................
 8000e22:	ffffffff ffffffff ffffffff ffffffff     ................
 8000e32:	ffffffff ffffffff ffffffff ffffffff     ................
 8000e42:	ffffffff ffffffff ffffffff ffffffff     ................
 8000e52:	ffffffff ffffffff ffffffff ffffffff     ................
 8000e62:	ffffffff ffffffff ffffffff ffffffff     ................
 8000e72:	ffffffff ffffffff ffffffff ffffffff     ................
 8000e82:	ffffffff ffffffff ffffffff ffffffff     ................
 8000e92:	ffffffff ffffffff ffffffff ffffffff     ................
 8000ea2:	ffffffff ffffffff ffffffff ffffffff     ................
 8000eb2:	ffffffff ffffffff 410879ce 00000000     .........y.A....
 8000ec2:	00000000 29420000 5ce71084 ffffffff     ......B)...\....
 8000ed2:	ffffffff aa529294 ffffffff ffffffff     ......R.........
 8000ee2:	ffffffff 0c6359ce 0100a631 04218631     .....Yc.1...1.!.
 8000ef2:	ffff0421 ffffffff ffffffff ffffffff     !...............
 8000f02:	ffffffff ffffffff ffffffff ffffffff     ................
 8000f12:	ffffffff ffffffff ffffffff ffffffff     ................
 8000f22:	ffffffff ffffffff ffffffff ffffffff     ................
 8000f32:	ffffffff ffffffff ffffffff ffffffff     ................
 8000f42:	ffffffff ffffffff ffffffff ffffffff     ................
 8000f52:	ffffffff ffffffff ffffffff ffffffff     ................
 8000f62:	ffffffff ffffffff ffffffff ffffffff     ................
 8000f72:	ffffffff ffffffff ffffffff ffffffff     ................
 8000f82:	ffffffff ffffffff ffffffff ffffffff     ................
 8000f92:	ffffffff ffffffff ffffffff ffffffff     ................
 8000fa2:	ffffffff ffffffff ffffffff ffffffff     ................
 8000fb2:	dfffffff bad63ce7 38c659ce 38c638c6     .....<...Y.8.8.8
 8000fc2:	bad659ce bef71ce7 1084ffff 00000000     .Y..............
	...
 8000fda:	61100000 ffff1084 ffffffff 0000508c     ...a.........P..
 8000fea:	ffffffff ffffffff 8a521be7 c3186208     ..........R..b..
 8000ffa:	8f6be839 c31859ce ffff1084 ffffffff     9.k..Y..........
 800100a:	ffffffff ffffffff ffffffff ffffffff     ................
 800101a:	ffffffff ffffffff ffffffff ffffffff     ................
 800102a:	ffffffff ffffffff ffffffff ffffffff     ................
 800103a:	ffffffff ffffffff ffffffff ffffffff     ................
 800104a:	ffffffff ffffffff ffffffff ffffffff     ................
 800105a:	ffffffff ffffffff ffffffff ffffffff     ................
 800106a:	ffffffff ffffffff ffffffff ffffffff     ................
 800107a:	ffffffff ffffffff ffffffff ffffffff     ................
 800108a:	ffffffff ffffffff ffffffff ffffffff     ................
 800109a:	ffffffff ffffffff ffffffff ffffffff     ................
 80010aa:	ffffffff ffffffff ffffffff ffffffff     ................
 80010ba:	55adbef7 0c631084 e420c739 00002108     ...U..c.9. ..!..
	...
 80010d6:	a2100000 a7398631 00000000 00000000     ....1.9.........
 80010e6:	41080000 00000000 8a520000 ffff3ce7     ...A......R..<..
 80010f6:	0000518c ffff4d6b 518cdfff 25218631     .Q..kM.....Q1.!%
 8001106:	af6b0d63 d394ec52 00002d63 fffffbde     c.k.R...c-......
 8001116:	ffffffff ffffffff ffffffff ffffffff     ................
 8001126:	ffffffff ffffffff ffffffff ffffffff     ................
 8001136:	ffffffff ffffffff ffffffff ffffffff     ................
 8001146:	ffffffff ffffffff ffffffff ffffffff     ................
 8001156:	ffffffff ffffffff ffffffff ffffffff     ................
 8001166:	ffffffff ffffffff ffffffff ffffffff     ................
 8001176:	ffffffff ffffffff ffffffff ffffffff     ................
 8001186:	ffffffff ffffffff ffffffff ffffffff     ................
 8001196:	ffffffff ffffffff ffffffff ffffffff     ................
 80011a6:	ffffffff ffffffff ffffffff ffffffff     ................
 80011b6:	ffffffff ffffffff ffffffff ffffffff     ................
 80011c6:	ffffffff 9294bef7 00004108 00000000     .........A......
	...
 80011de:	a3180000 00006208 00000000 00000000     .....b..........
	...
 80011f6:	a3180000 86318a4a 00000000 7def6108     ....J.1......a.}
 8001206:	000034a5 cf7b0000 62088a52 e839a731     .4....{.R..b1.9.
 8001216:	0421c318 d39c3184 e4200000 ffffffff     ..!..1.... .....
 8001226:	dfffffff 1ce7f39c ffffffff ffffffff     ................
 8001236:	ffffffff ffffffff ffffffff ffffffff     ................
 8001246:	ffffffff ffffffff ffffffff ffffffff     ................
 8001256:	ffffffff ffffffff ffffffff ffffffff     ................
 8001266:	ffffffff ffffffff ffffffff ffffffff     ................
 8001276:	ffffffff ffffffff ffffffff ffffffff     ................
 8001286:	ffffffff ffffffff ffffffff ffffffff     ................
 8001296:	ffffffff ffffffff ffffffff ffffffff     ................
 80012a6:	ffffffff ffffffff ffffffff ffffffff     ................
 80012b6:	ffffffff ffffffff ffffffff ffffffff     ................
 80012c6:	ffffffff ffffffff ffffffff ffffffff     ................
 80012d6:	ffffffff ffffffff 3084ffff 00008210     ...........0....
	...
 80012ee:	04212108 2d63494a ec5aab52 8a526d6b     .!!.JIc-R.Z.kmR.
 80012fe:	82108631 00000000 00000000 107c2942     1...........B)|.
 800130e:	0000494a 694a0000 0000ae73 00000000     JI....Jis.......
 800131e:	a3180000 00000000 09420000 4d6bb7b5     ..........B...kM
 800132e:	10840000 ffffffff c318f39c bef72108     .............!..
 800133e:	ffffffff ffffffff ffffffff ffffffff     ................
 800134e:	ffffffff ffffffff ffffffff ffffffff     ................
 800135e:	ffffffff ffffffff ffffffff ffffffff     ................
 800136e:	ffffffff ffffffff ffffffff ffffffff     ................
 800137e:	ffffffff ffffffff ffffffff ffffffff     ................
 800138e:	ffffffff ffffffff ffffffff ffffffff     ................
 800139e:	ffffffff ffffffff ffffffff ffffffff     ................
 80013ae:	ffffffff ffffffff ffffffff ffffffff     ................
 80013be:	ffffffff ffffffff ffffffff ffffffff     ................
 80013ce:	ffffffff ffffffff ffffffff ffffffff     ................
 80013de:	ffffffff ffffffff ffffffff ffffffff     ................
 80013ee:	ffffffff 30847def 00004108 00000000     .....}.0.A......
 80013fe:	00000000 86292108 d073ec52 76ad3184     .....!).R.s..1.v
 800140e:	d39cf8bd 2842af73 00000000 49422100     ....s.B(.....!BI
 800141e:	2942af73 00000000 00000000 00000000     s.B)............
	...
 8001436:	928cc731 a31835a5 bad64108 4529b294     1....5...A....)E
 8001446:	00000000 fffff7bd ffffffff ffffffff     ................
 8001456:	ffffffff ffffffff ffffffff ffffffff     ................
 8001466:	ffffffff ffffffff ffffffff ffffffff     ................
 8001476:	ffffffff ffffffff ffffffff ffffffff     ................
 8001486:	ffffffff ffffffff ffffffff ffffffff     ................
 8001496:	ffffffff ffffffff ffffffff ffffffff     ................
 80014a6:	ffffffff ffffffff ffffffff ffffffff     ................
 80014b6:	ffffffff ffffffff ffffffff ffffffff     ................
 80014c6:	ffffffff ffffffff ffffffff ffffffff     ................
 80014d6:	ffffffff ffffffff ffffffff ffffffff     ................
 80014e6:	ffffffff ffffffff ffffffff ffffffff     ................
 80014f6:	ffffffff ffffffff ffffffff ffffffff     ................
 8001506:	494a1bdf 00000000 00000000 00000000     ..JI............
 8001516:	494a4108 ec5aec5a 56ad3184 18bed7bd     .AJIZ.Z..1.V....
 8001526:	0000ec5a 00000000 d07b2942 00002942     Z.......B){.B)..
	...
 8001542:	66290000 55a58e6b 00002d6b c7396210     ..)fk..Uk-...b9.
 8001552:	00000000 6d6b0000 ffffffff ffffffff     ......km........
 8001562:	ffffffff ffffffff ffffffff ffffffff     ................
 8001572:	ffffffff ffffffff ffffffff ffffffff     ................
 8001582:	ffffffff ffffffff ffffffff ffffffff     ................
 8001592:	ffffffff ffffffff ffffffff ffffffff     ................
 80015a2:	ffffffff ffffffff ffffffff ffffffff     ................
 80015b2:	ffffffff ffffffff ffffffff ffffffff     ................
 80015c2:	ffffffff ffffffff ffffffff ffffffff     ................
 80015d2:	ffffffff ffffffff ffffffff ffffffff     ................
 80015e2:	ffffffff ffffffff ffffffff ffffffff     ................
 80015f2:	ffffffff ffffffff ffffffff ffffffff     ................
 8001602:	ffffffff ffffffff ffffffff ffffffff     ................
 8001612:	ffffffff ffffffff 82103084 00000000     .........0......
	...
 800162a:	cc5a8631 af73ab52 14a534a5 0c63b7b5     1.Z.R.s..4....c.
 800163a:	00000000 083a0000 a731f073 00000000     ......:.s.1.....
	...
 8001652:	2d634108 d3943184 00008210 00000000     .Ac-.1..........
 8001662:	00000000 694a0000 d39c3084 dad695b5     ......Ji.0......
 8001672:	ffffffff ffffffff ffffffff ffffffff     ................
 8001682:	ffffffff ffffffff ffffffff ffffffff     ................
 8001692:	ffffffff ffffffff ffffffff ffffffff     ................
 80016a2:	ffffffff ffffffff ffffffff ffffffff     ................
 80016b2:	ffffffff ffffffff ffffffff ffffffff     ................
 80016c2:	ffffffff ffffffff ffffffff ffffffff     ................
 80016d2:	ffffffff ffffffff ffffffff ffffffff     ................
 80016e2:	ffffffff ffffffff ffffffff ffffffff     ................
 80016f2:	ffffffff ffffffff ffffffff ffffffff     ................
 8001702:	ffffffff ffffffff ffffffff ffffffff     ................
 8001712:	ffffffff ffffffff ffffffff ffffffff     ................
 8001722:	ffffffff ffffffff 5ce7ffff 00008210     ...........\....
	...
 800173a:	e4180000 ec5aec5a 34a5cf73 39c6149d     ....Z.Z.s..4...9
 800174a:	00008a52 00000000 a7312942 00000000     R.......B)1.....
	...
 8001762:	6e6b0842 ec5a35a5 00000000 00000000     B.kn.5Z.........
	...
 8001782:	aa52c318 dad6d39c ffffffff ffffffff     ..R.............
 8001792:	ffffffff ffffffff ffffffff ffffffff     ................
 80017a2:	ffffffff ffffffff ffffffff ffffffff     ................
 80017b2:	ffffffff ffffffff ffffffff ffffffff     ................
 80017c2:	ffffffff ffffffff ffffffff ffffffff     ................
 80017d2:	ffffffff ffffffff ffffffff ffffffff     ................
 80017e2:	ffffffff ffffffff ffffffff ffffffff     ................
 80017f2:	ffffffff ffffffff ffffffff ffffffff     ................
 8001802:	ffffffff ffffffff ffffffff ffffffff     ................
 8001812:	ffffffff ffffffff ffffffff ffffffff     ................
 8001822:	ffffffff ffffffff ffffffff ffffffff     ................
 8001832:	ffffffff ffffffff ffffffff 86317def     .............}1.
	...
 800184e:	ab528210 d073ec5a 55ad55a5 e41855ad     ..R.Z.s..U.U.U..
 800185e:	00000000 20000000 00000000 00000000     ....... ........
 800186e:	a3100000 8e6b4e63 e42055a5 00000000     ....cNk..U .....
 800187e:	00000000 a3100000 ec5ae839 ab520d5b     ........9.Z.[.R.
 800188e:	04212942 00000000 00000000 b294e739     B)!.........9...
 800189e:	bef71bdf ffffffff ffffffff ffffffff     ................
 80018ae:	ffffffff ffffffff ffffffff ffffffff     ................
 80018be:	ffffffff ffffffff ffffffff ffffffff     ................
 80018ce:	ffffffff ffffffff ffffffff ffffffff     ................
 80018de:	ffffffff ffffffff ffffffff ffffffff     ................
 80018ee:	ffffffff ffffffff ffffffff ffffffff     ................
 80018fe:	ffffffff ffffffff ffffffff ffffffff     ................
 800190e:	ffffffff ffffffff ffffffff ffffffff     ................
 800191e:	ffffffff ffffffff ffffffff ffffffff     ................
 800192e:	ffffffff ffffffff ffffffff ffffffff     ................
 800193e:	ffffffff dbdeffff 6d6bf39c 494aaa52     ..........kmR.JI
 800194e:	86310c63 00000000 00000000 a3106108     c.1..........a..
 800195e:	00000000 0c5b6a4a f49c6e6b f49cb7b5     ....Jj[.kn......
 800196e:	0000a310 00000000 00000000 00000000     ................
 800197e:	ab520000 149d4d63 00006e6b 00000000     ..R.cM..kn......
 800198e:	82100000 5284ab52 6e6b5284 6e6b4d63     ....R..R.RkncMkn
 800199e:	d073af73 2d638f6b 05218a4a 00000000     s.s.k.c-J.!.....
 80019ae:	b2940000 ffffffff 139d9def ffffdfff     ................
 80019be:	ffffffff ffffffff ffffffff ffffffff     ................
 80019ce:	ffffffff ffffffff ffffffff ffffffff     ................
 80019de:	ffffffff ffffffff ffffffff ffffffff     ................
 80019ee:	ffffffff ffffffff ffffffff ffffffff     ................
 80019fe:	ffffffff ffffffff ffffffff ffffffff     ................
 8001a0e:	ffffffff ffffffff ffffffff ffffffff     ................
 8001a1e:	ffffffff ffffffff ffffffff ffffffff     ................
 8001a2e:	ffffffff ffffffff ffffffff ffffffff     ................
 8001a3e:	ffffffff ffffffff ffffffff ffffffff     ................
 8001a4e:	f7bdffff 00008a52 00000000 00000000     ....R...........
	...
 8001a6a:	86312108 0000494a 29420000 2d63cc5a     .!1.JI....B)Z.c-
 8001a7a:	18bed394 0000cf7b 00000000 00000000     ....{...........
 8001a8a:	00000000 2d5b6629 75ad6e6b 0000c318     ....)f[-kn.u....
 8001a9a:	00000000 5184e739 96b555ad 528c76ad     ....9..Q.U...v.R
 8001aaa:	6e6b2d63 4d638f6b 6a4aec52 0421c839     c-knk.cMR.Jj9.!.
 8001aba:	a3180000 7def9294 ffffffff 65294529     .......}....)E)e
 8001aca:	ffffffff ffffffff ffffffff ffffffff     ................
 8001ada:	ffffffff ffffffff ffffffff ffffffff     ................
 8001aea:	ffffffff ffffffff ffffffff ffffffff     ................
 8001afa:	ffffffff ffffffff ffffffff ffffffff     ................
 8001b0a:	ffffffff ffffffff ffffffff ffffffff     ................
 8001b1a:	ffffffff ffffffff ffffffff ffffffff     ................
 8001b2a:	ffffffff ffffffff ffffffff ffffffff     ................
 8001b3a:	ffffffff ffffffff ffffffff ffffffff     ................
 8001b4a:	ffffffff ffffffff ffffffff ffffffff     ................
 8001b5a:	fbdeffff 00006d6b 00000000 00000000     ....km..........
	...
 8001b7a:	21000000 2d63494a 21000421 ab522942     ...!JIc-!..!B)R.
 8001b8a:	55a54d6b 863176ad 00000000 00000000     kM.U.v1.........
 8001b9a:	00000000 cb526a4a 4d6bf49c 00000000     ....JjR...kM....
 8001baa:	82100000 f8bd76ad 3184b394 8f6b107c     .....v.....1|.k.
 8001bba:	29420d63 e4188631 00004108 00000000     c.B)1....A......
 8001bca:	9def4d6b ffffffff eb5affff 0c630000     kM........Z...c.
 8001bda:	ffffffff ffffffff ffffffff ffffffff     ................
 8001bea:	ffffffff ffffffff ffffffff ffffffff     ................
 8001bfa:	ffffffff ffffffff ffffffff ffffffff     ................
 8001c0a:	ffffffff ffffffff ffffffff ffffffff     ................
 8001c1a:	ffffffff ffffffff ffffffff ffffffff     ................
 8001c2a:	ffffffff ffffffff ffffffff ffffffff     ................
 8001c3a:	ffffffff ffffffff ffffffff ffffffff     ................
 8001c4a:	ffffffff ffffffff ffffffff ffffffff     ................
 8001c5a:	ffffffff ffffffff ffffffff ffffffff     ................
 8001c6a:	210896b5 00000000 00000000 82106108     ...!.........a..
 8001c7a:	2421c318 a210e420 00002108 00000000     ..!$ ....!......
 8001c8a:	00000000 093a0000 6a4af073 8b4a8731     ......:.s.Jj1.J.
 8001c9a:	cf738a4a d394b7b5 0000c318 00000000     J.s.............
 8001caa:	66290000 af73ec5a 821076ad 00000000     ..)fZ.s..v......
 8001cba:	66310000 af73f49c ec5a2d63 6629494a     ..1f..s.c-Z.JI)f
 8001cca:	00008310 00000000 00000000 55ad0000     ...............U
 8001cda:	ffffffff ffffffff 0100ec5a 0c630000     ........Z.....c.
 8001cea:	ffffffff ffffffff ffffffff ffffffff     ................
 8001cfa:	ffffffff ffffffff ffffffff ffffffff     ................
 8001d0a:	ffffffff ffffffff ffffffff ffffffff     ................
 8001d1a:	ffffffff ffffffff ffffffff ffffffff     ................
 8001d2a:	ffffffff ffffffff ffffffff ffffffff     ................
 8001d3a:	ffffffff ffffffff ffffffff ffffffff     ................
 8001d4a:	ffffffff ffffffff ffffffff ffffffff     ................
 8001d5a:	ffffffff ffffffff ffffffff ffffffff     ................
 8001d6a:	ffffffff ffffffff ffffffff f39cffff     ................
 8001d7a:	00000000 20080000 8b4a4529 af73ec5a     ....... )EJ.Z.s.
 8001d8a:	76ad14a5 14a555a5 af73728c 21082d63     ...v.U...rs.c-.!
	...
 8001da2:	6f6b6a4a 0d5bec5a cc52cc52 9aced394     JjkoZ.[.R.R.....
 8001db2:	0000c739 00000000 ec5a4108 35a5cc52     9........AZ.R..5
 8001dc2:	0000ae73 00000000 45290000 cc52af73     s.........)Es.R.
 8001dd2:	45292942 00004108 00000000 00000000     B))E.A..........
 8001de2:	00000000 ffff38c6 ffffffff 4d6bffff     .....8........kM
 8001df2:	494a0000 8e730000 ffffffff ffffffff     ..JI..s.........
 8001e02:	ffffffff ffffffff ffffffff ffffffff     ................
 8001e12:	ffffffff ffffffff ffffffff ffffffff     ................
 8001e22:	ffffffff ffffffff ffffffff ffffffff     ................
 8001e32:	ffffffff ffffffff ffffffff ffffffff     ................
 8001e42:	ffffffff ffffffff ffffffff ffffffff     ................
 8001e52:	ffffffff ffffffff ffffffff ffffffff     ................
 8001e62:	ffffffff ffffffff ffffffff ffffffff     ................
 8001e72:	ffffffff ffffffff ffffffff ffffffff     ................
 8001e82:	ffffffff 0000aa52 00000000 0d63e418     ....R.........c.
 8001e92:	2d638f6b 35a5af6b b39455a5 f49cb394     k.c-k..5.U......
 8001ea2:	55a534a5 cf7b39c6 00000000 00000000     .4.U.9{.........
 8001eb2:	6a4a0000 0d5b2d63 29428e6b 294aa731     ..Jjc-[.k.B)1.J)
 8001ec2:	00008210 00000000 6a4a4108 76b5d07b     .........AJj{..v
 8001ed2:	00002421 00000000 45290000 a3106a4a     !$........)EJj..
	...
 8001ef2:	79ce0000 ffffffff ffffffff 0000ab5a     ...y........Z...
 8001f02:	86316e6b ef7b0000 ffffffff ffffffff     kn1...{.........
 8001f12:	ffffffff ffffffff ffffffff ffffffff     ................
 8001f22:	ffffffff ffffffff ffffffff ffffffff     ................
 8001f32:	ffffffff ffffffff ffffffff ffffffff     ................
 8001f42:	ffffffff ffffffff ffffffff ffffffff     ................
 8001f52:	ffffffff ffffffff ffffffff ffffffff     ................
 8001f62:	ffffffff ffffffff ffffffff ffffffff     ................
 8001f72:	ffffffff ffffffff ffffffff ffffffff     ................
 8001f82:	ffffffff ffffffff ffffffff ffffffff     ................
 8001f92:	6d6bffff 00000000 66290000 2d634e63     ..km......)fcNc-
 8001fa2:	ab52ab52 6e6b2d63 ec5aec5a 2d630d5b     R.R.c-knZ.Z.[.c-
 8001fb2:	ec5a0c5b 1184ec5a 00006629 00000000     [.Z.Z...)f......
 8001fc2:	20000000 8f6bec5a 0000a731 00000000     ... Z.k.1.......
	...
 8001fda:	25210000 cf7b96b5 00000000 00000000     ..!%..{.........
 8001fea:	41080000 00000000 00000000 00000000     ...A............
 8001ffa:	00000000 20080000 ffff55ad 79ce5de7     ....... .U...].y
 800200a:	0421718c 0d5b0000 62108f6b 30840000     .q!...[.k..b...0
 800201a:	ffffffff ffffffff ffffffff ffffffff     ................
 800202a:	ffffffff ffffffff ffffffff ffffffff     ................
 800203a:	ffffffff ffffffff ffffffff ffffffff     ................
 800204a:	ffffffff ffffffff ffffffff ffffffff     ................
 800205a:	ffffffff ffffffff ffffffff ffffffff     ................
 800206a:	ffffffff ffffffff ffffffff ffffffff     ................
 800207a:	ffffffff ffffffff ffffffff ffffffff     ................
 800208a:	ffffffff ffffffff ffffffff ffffffff     ................
 800209a:	ffffffff ffffffff 00008a52 62080000     ........R......b
 80020aa:	8f6b6a4a 2d634d63 4e636e6b ec5a0d5b     Jjk.cMc-kncN[.Z.
 80020ba:	8b4a0d5b 62106629 41082100 41080000     [.J.)f.b.!.A...A
 80020ca:	00004108 00000000 00000000 4529a318     .A............)E
	...
 80020e6:	2521c318 20000000 8631f07b 00000000     ..!%... {.1.....
	...
 8002112:	e420494a 00000000 41080000 af6bcc5a     JI ........AZ.k.
 8002122:	20006a4a 92940000 ffffffff ffffffff     Jj. ............
 8002132:	ffffffff ffffffff ffffffff ffffffff     ................
 8002142:	ffffffff ffffffff ffffffff ffffffff     ................
 8002152:	ffffffff ffffffff ffffffff ffffffff     ................
 8002162:	ffffffff ffffffff ffffffff ffffffff     ................
 8002172:	ffffffff ffffffff ffffffff ffffffff     ................
 8002182:	ffffffff ffffffff ffffffff ffffffff     ................
 8002192:	ffffffff ffffffff ffffffff ffffffff     ................
 80021a2:	ffffffff ffffffff ffffffff aa52ffff     ..............R.
 80021b2:	00000000 8a4a8210 ab526e63 29422942     ......J.cnR.B)B)
 80021c2:	e8390842 c731c739 00002421 45290000     B.9.9.1.!$....)E
 80021d2:	ae73ec5a ae73cf7b 8e6b8e73 aa522c63     Z.s.{.s.s.k.c,R.
 80021e2:	08428a52 00000000 00000000 00000000     R.B.............
 80021f2:	25210000 6e6b0d5b 00006210 00004108     ..!%[.kn.b...A..
	...
 800221e:	01000000 00000000 c3180000 8f6b2942     ............B)k.
 800222e:	2d632e63 00006629 f39c0000 ffffffff     c.c-)f..........
 800223e:	ffffffff ffffffff ffffffff ffffffff     ................
 800224e:	ffffffff ffffffff ffffffff ffffffff     ................
 800225e:	ffffffff ffffffff ffffffff ffffffff     ................
 800226e:	ffffffff ffffffff ffffffff ffffffff     ................
 800227e:	ffffffff ffffffff ffffffff ffffffff     ................
 800228e:	ffffffff ffffffff ffffffff ffffffff     ................
 800229e:	ffffffff ffffffff ffffffff ffffffff     ................
 80022ae:	ffffffff ffffffff ffffffff ffffffff     ................
 80022be:	00000c63 00000000 a3186108 21084108     c........a...A.!
	...
 80022da:	a6310000 56a54e63 b7b539c6 35a576ad     ..1.cN.V.9...v.5
 80022ea:	35a5149d 96ad55a5 ab52b7b5 00000000     ...5.U....R.....
 80022fa:	00000000 21080000 0d5bc839 76ad6e6b     .......!9.[.kn.v
 800230a:	00008a52 00000000 00000000 00000000     R...............
	...
 800232a:	82100000 2d632d63 4d6b0d63 528cf07b     ....c-c-c.kM{..R
 800233a:	0d5b5284 ec5aec5a 00006210 55ad0000     .R[.Z.Z..b.....U
 800234a:	ffffffff ffffffff ffffffff ffffffff     ................
 800235a:	ffffffff ffffffff ffffffff ffffffff     ................
 800236a:	ffffffff ffffffff ffffffff ffffffff     ................
 800237a:	ffffffff ffffffff ffffffff ffffffff     ................
 800238a:	ffffffff ffffffff ffffffff ffffffff     ................
 800239a:	ffffffff ffffffff ffffffff ffffffff     ................
 80023aa:	ffffffff ffffffff ffffffff ffffffff     ................
 80023ba:	ffffffff ffffffff ffffffff ffffffff     ................
 80023ca:	2842ffff 00000000 00000000 00000000     ..B(............
	...
 80023e6:	41080000 2d5b0c5b 35a5317c 4d6bf07b     ...A[.[-|1.5{.kM
 80023f6:	6a4acb52 0d63ec5a ab520d5b 00008310     R.JjZ.c.[.R.....
	...
 800240e:	cc528210 6e6b2d63 b7b5149d 0000f07b     ..R.c-kn....{...
 800241e:	00000000 a7310000 86312942 e4184529     ......1.B)1.)E..
	...
 800243a:	728c0000 14a5d7bd 14a514a5 b7b535a5     ...r.........5..
 800244a:	ab525184 e8396e6b 00000000 f7bd0000     .QR.kn9.........
 800245a:	ffffffff ffffffff ffffffff ffffffff     ................
 800246a:	ffffffff ffffffff ffffffff ffffffff     ................
 800247a:	ffffffff ffffffff ffffffff ffffffff     ................
 800248a:	ffffffff ffffffff ffffffff ffffffff     ................
 800249a:	ffffffff ffffffff ffffffff ffffffff     ................
 80024aa:	ffffffff ffffffff ffffffff ffffffff     ................
 80024ba:	ffffffff ffffffff ffffffff ffffffff     ................
 80024ca:	ffffffff ffffffff ffffffff ffffffff     ................
 80024da:	00004d6b 00000000 00000000 00000000     kM..............
	...
 80024f6:	6a4a0000 ab4a8e6b 4d6baf73 29422942     ..Jjk.J.s.kMB)B)
 8002506:	6e6bcc52 09424d63 41082521 00000000     R.kncMB.!%.A....
 8002516:	00000000 04210000 2d634e63 d49c2d63     ......!.cNc-c-..
 8002526:	9294f49c e420d39c 00000000 4e634108     ...... ......AcN
 8002536:	6e6bd073 4e6b4e6b c318cf7b 00000000     s.knkNkN{.......
 8002546:	00000000 f8bde739 149df39c 55a555a5     ....9........U.U
 8002556:	929435a5 4e632d63 62082d63 00000000     .5..c-cNc-.b....
 8002566:	79ce0000 ffffffff ffffffff ffffffff     ...y............
 8002576:	ffffffff ffffffff ffffffff ffffffff     ................
 8002586:	ffffffff ffffffff ffffffff ffffffff     ................
 8002596:	ffffffff ffffffff ffffffff ffffffff     ................
 80025a6:	ffffffff ffffffff ffffffff ffffffff     ................
 80025b6:	ffffffff ffffffff ffffffff ffffffff     ................
 80025c6:	ffffffff ffffffff ffffffff ffffffff     ................
 80025d6:	ffffffff ffffffff ffffffff ffffffff     ................
 80025e6:	a6311bdf 00000000 04214108 494aa631     ..1......A!.1.JI
 80025f6:	4d6beb5a 8e736d6b c3181084 00000000     Z.kMkms.........
 8002606:	4e63a731 af73ec5a 4521c839 2d632d5b     1.cNZ.s.9.!E[-c-
 8002616:	a6312d63 00006210 00000000 00000000     c-1..b..........
 8002626:	00000000 af736629 4e634d63 f49cf49c     ....)fs.cMcN....
 8002636:	6e6bd394 62088631 00000000 af730421     ..kn1..b....!.s.
 8002646:	6e634e63 0d63ec52 728cf8bd 00002000     cNcnR.c....r. ..
 8002656:	61080000 f49c728c 518c5184 d0731084     ...a.r...Q.Q..s.
 8002666:	2d63cf73 af6b0d5b 00008731 00000000     s.c-[.k.1.......
 8002676:	3ce72000 ffffffff ffffffff ffffffff     . .<............
 8002686:	ffffffff ffffffff ffffffff ffffffff     ................
 8002696:	ffffffff ffffffff ffffffff ffffffff     ................
 80026a6:	ffffffff ffffffff ffffffff ffffffff     ................
 80026b6:	ffffffff ffffffff ffffffff ffffffff     ................
 80026c6:	ffffffff ffffffff ffffffff ffffffff     ................
 80026d6:	ffffffff ffffffff ffffffff ffffffff     ................
 80026e6:	ffffffff ffffffff ffffffff ffffffff     ................
 80026f6:	4d6b59ce 9ad675ad ffff5ce7 ffffffff     .YkM.u...\......
 8002706:	ffffffff ffffffff 82109def 04190000     ................
 8002716:	6e6bd073 8631cc5a 25210000 8f6bcf73     s.knZ.1...!%s.k.
 8002726:	00002521 00000000 00000000 00000000     !%..............
 8002736:	86290000 2d63d073 d394cc5a 35a555ad     ..).s.c-Z....U.5
 8002746:	00002d63 00000000 00000000 a731c318     c-............1.
 8002756:	c7312521 8f6bec5a d7bd149d 00008631     !%1.Z.k.....1...
 8002766:	c7390000 0d5b117c ec5a0d5b cc52ab52     ..9.|.[.[.Z.R.R.
 8002776:	8f6b0d5b 093a8e6b 00000000 00000000     [.k.k.:.........
 8002786:	ffffc318 ffffffff ffffffff ffffffff     ................
 8002796:	ffffffff ffffffff ffffffff ffffffff     ................
 80027a6:	ffffffff ffffffff ffffffff ffffffff     ................
 80027b6:	ffffffff ffffffff ffffffff ffffffff     ................
 80027c6:	ffffffff ffffffff ffffffff ffffffff     ................
 80027d6:	ffffffff ffffffff ffffffff ffffffff     ................
 80027e6:	ffffffff ffffffff ffffffff ffffffff     ................
 80027f6:	ffffffff ffffffff ffffffff ffffffff     ................
 8002806:	ffffffff ffffffff ffffffff ffffffff     ................
 8002816:	ffffffff dbdeffff 00008210 0d63a318     ..............c.
 8002826:	6629ab4a 00002108 8e6ba310 8631cc52     J.)f.!....k.R.1.
	...
 8002846:	d0736529 cc524e63 35a5117c 4d6bb7b5     )es.cNR.|..5..kM
 8002856:	00000000 e4206629 00000000 00000000     ....)f .........
 8002866:	00000000 4e630521 d7bdb394 00006e6b     ....!.cN....kn..
 8002876:	ab520000 2d638f6b 4e632d63 4e636e6b     ..R.k.c-c-cNkncN
 8002886:	2942cc52 00004529 00000000 00000000     R.B))E..........
 8002896:	ffffaa52 ffffffff ffffffff ffffffff     R...............
 80028a6:	ffffffff ffffffff ffffffff ffffffff     ................
 80028b6:	ffffffff ffffffff ffffffff ffffffff     ................
 80028c6:	ffffffff ffffffff ffffffff ffffffff     ................
 80028d6:	ffffffff ffffffff ffffffff ffffffff     ................
 80028e6:	ffffffff ffffffff ffffffff ffffffff     ................
 80028f6:	ffffffff ffffffff ffffffff ffffffff     ................
 8002906:	ffffffff ffffffff ffffffff ffffffff     ................
 8002916:	ffffffff ffffffff ffffffff ffffffff     ................
 8002926:	ffffffff 82109def 20000000 25216629     ........... )f!%
	...
 800293e:	4a4a4942 00004108 00000000 00000000     BIJJ.A..........
 800294e:	00000000 e4180000 6e63af73 4e6bcc52     ........s.cnR.kN
 800295e:	55ad35a5 00008e73 29420000 cc526e63     .5.Us.....B)cnR.
 800296e:	00000000 00006200 00000000 c7310000     .....b........1.
 800297e:	55a5107c 821014a5 45210000 8629e839     |..U......!E9.).
 800298e:	25216629 c3180421 00002108 00000000     )f!%!....!......
	...
 80029a6:	fffffbde ffffffff ffffffff ffffffff     ................
 80029b6:	ffffffff ffffffff ffffffff ffffffff     ................
 80029c6:	ffffffff ffffffff ffffffff ffffffff     ................
 80029d6:	ffffffff ffffffff ffffffff ffffffff     ................
 80029e6:	ffffffff ffffffff ffffffff ffffffff     ................
 80029f6:	ffffffff ffffffff ffffffff ffffffff     ................
 8002a06:	ffffffff ffffffff ffffffff ffffffff     ................
 8002a16:	ffffffff ffffffff ffffffff ffffffff     ................
 8002a26:	ffffffff ffffffff ffffffff ffffffff     ................
 8002a36:	ffffffff 00000c63 00000000 00000000     ....c...........
 8002a46:	00000000 21080000 00008310 00000000     .......!........
 8002a56:	00000000 20004108 00000000 8a4a0000     .....A. ......J.
 8002a66:	0d5bcf73 107ccb52 cf7bb7b5 00000000     s.[.R.|...{.....
 8002a76:	ec52e831 cf73cc52 2b8b6c73 a651eeb3     1.R.R.s.sl.+..Q.
 8002a86:	00000000 a3100000 72842d5b e841f8bd     ........[-.r..A.
	...
 8002ab2:	96b50000 ffffffff ffffffff ffffffff     ................
 8002ac2:	ffffffff ffffffff ffffffff ffffffff     ................
 8002ad2:	ffffffff ffffffff ffffffff ffffffff     ................
 8002ae2:	ffffffff ffffffff ffffffff ffffffff     ................
 8002af2:	ffffffff ffffffff ffffffff ffffffff     ................
 8002b02:	ffffffff ffffffff ffffffff ffffffff     ................
 8002b12:	ffffffff ffffffff ffffffff ffffffff     ................
 8002b22:	ffffffff ffffffff ffffffff ffffffff     ................
 8002b32:	ffffffff ffffffff ffffffff ffffffff     ................
 8002b42:	ffffffff d7bdffff 00000000 00000000     ................
	...
 8002b66:	25210000 00000842 00000000 ec5a4108     ..!%B........AZ.
 8002b76:	2d632d5b b294ec5a 0000b394 6e730000     [-c-Z.........sn
 8002b86:	f6cd55b5 19ff97e6 fcfffdff 8ffcf4fd     .U..............
 8002b96:	0000c98a 00000000 cf73093a ec5ad7b5     ........:.s...Z.
	...
 8002bc2:	ffffb6b5 ffffffff ffffffff ffffffff     ................
 8002bd2:	ffffffff ffffffff ffffffff ffffffff     ................
 8002be2:	ffffffff ffffffff ffffffff ffffffff     ................
 8002bf2:	ffffffff ffffffff ffffffff ffffffff     ................
 8002c02:	ffffffff ffffffff ffffffff ffffffff     ................
 8002c12:	ffffffff ffffffff ffffffff ffffffff     ................
 8002c22:	ffffffff ffffffff ffffffff ffffffff     ................
 8002c32:	ffffffff ffffffff ffffffff ffffffff     ................
 8002c42:	ffffffff ffffffff ffffffff ffffffff     ................
 8002c52:	ffffffff 8210ffff 00000000 00000000     ................
	...
 8002c76:	cf732108 00002942 00000000 2d630421     .!s.B)......!.c-
 8002c86:	0d5bec52 f49c0d5b c3204100 dcff98d6     R.[.[....A .....
 8002c96:	bbffdcff 19ff7aff ffff19ff 52edffff     .....z.........R
 8002ca6:	a649cffc 00000000 8f6b2421 ab52b7ad     ..I.....!$k...R.
	...
 8002cce:	18c60000 ffffffff ffffffff ffffffff     ................
 8002cde:	ffffffff ffffffff ffffffff ffffffff     ................
 8002cee:	ffffffff ffffffff ffffffff ffffffff     ................
 8002cfe:	ffffffff ffffffff ffffffff ffffffff     ................
 8002d0e:	ffffffff ffffffff ffffffff ffffffff     ................
 8002d1e:	ffffffff ffffffff ffffffff ffffffff     ................
 8002d2e:	ffffffff ffffffff ffffffff ffffffff     ................
 8002d3e:	ffffffff ffffffff ffffffff ffffffff     ................
 8002d4e:	ffffffff ffffffff ffffffff ffffffff     ................
 8002d5e:	ffffffff ffffffff 0000ec62 00000000     ........b.......
	...
 8002d82:	41080000 ab52ab52 0000a318 00000000     ...AR.R.........
 8002d92:	2e632942 ab522d5b 6621af73 3af70008     B)c.[-R.s.!f...:
 8002da2:	19ffffff f9fef9fe f9fef9fe 3bfff8fe     ...............;
 8002db2:	def7ffff ecdb31ed 0000c320 cc5a2108     .....1.. ....!Z.
 8002dc2:	0421928c 00000000 00000000 00000000     ..!.............
	...
 8002dde:	ffff75ad ffffffff ffffffff ffffffff     .u..............
 8002dee:	ffffffff ffffffff ffffffff ffffffff     ................
 8002dfe:	ffffffff ffffffff ffffffff ffffffff     ................
 8002e0e:	ffffffff ffffffff ffffffff ffffffff     ................
 8002e1e:	ffffffff ffffffff ffffffff ffffffff     ................
 8002e2e:	ffffffff ffffffff ffffffff ffffffff     ................
 8002e3e:	ffffffff ffffffff ffffffff ffffffff     ................
 8002e4e:	ffffffff ffffffff ffffffff ffffffff     ................
 8002e5e:	ffffffff ffffffff ffffffff ffffffff     ................
 8002e6e:	ffffffff 1bdfffff 00000000 00000000     ................
	...
 8002e92:	494a2000 00002942 00000000 20000000     . JIB)......... 
 8002ea2:	6e638a4a 4e6bec5a 00006621 feff77e6     J.cnZ.kN!f...w..
 8002eb2:	f9fed8fe f9fef9fe f9fef9fe d8fef9fe     ................
 8002ec2:	ffff7df7 10fd5cf7 00006bab 8a4a0000     .}...\...k....J.
 8002ed2:	00002942 00000000 00000000 00000000     B)..............
	...
 8002eea:	5def0421 ffffffff ffffffff ffffffff     !..]............
 8002efa:	ffffffff ffffffff ffffffff ffffffff     ................
 8002f0a:	ffffffff ffffffff ffffffff ffffffff     ................
 8002f1a:	ffffffff ffffffff ffffffff ffffffff     ................
 8002f2a:	ffffffff ffffffff ffffffff ffffffff     ................
 8002f3a:	ffffffff ffffffff ffffffff ffffffff     ................
 8002f4a:	ffffffff ffffffff ffffffff ffffffff     ................
 8002f5a:	ffffffff ffffffff ffffffff ffffffff     ................
 8002f6a:	ffffffff ffffffff ffffffff ffffffff     ................
 8002f7a:	ffffffff ffffffff eb5affff 00000000     ..........Z.....
	...
 8002fa2:	e4184108 00000000 00000000 41080000     .A.............A
 8002fb2:	2d630c5b 8b4a0d5b 0a9b0000 3afffcff     [.c-[.J........:
 8002fc2:	f9fef9fe f9fef9fe f9fef9fe d8fef9fe     ................
 8002fd2:	dff75bf7 97feffff 41100ce4 ec5a0000     .[.........A..Z.
 8002fe2:	49420000 00009294 82100000 6629c318     ..BI..........)f
 8002ff2:	6629c731 4521a731 79ceaa52 ffffbad6     1.)f1.!ER..y....
 8003002:	ffffffff ffffffff ffffffff ffffffff     ................
 8003012:	ffffffff ffffffff ffffffff ffffffff     ................
 8003022:	ffffffff ffffffff ffffffff ffffffff     ................
 8003032:	ffffffff ffffffff ffffffff ffffffff     ................
 8003042:	ffffffff ffffffff ffffffff ffffffff     ................
 8003052:	ffffffff ffffffff ffffffff ffffffff     ................
 8003062:	ffffffff ffffffff ffffffff ffffffff     ................
 8003072:	ffffffff ffffffff ffffffff ffffffff     ................
 8003082:	ffffffff ffffffff ffffffff ffffffff     ................
 8003092:	000038c6 00000000 00000000 00000000     .8..............
	...
 80030be:	e3180000 ed5a4e63 00000c63 72fd4349     ....cNZ.c...IC.r
 80030ce:	5aff97fe f9fef9fe f9fef9fe 19fff9fe     ...Z............
 80030de:	d8fe19ff ffff1aff ee93ffff 8120c8a2     .............. .
 80030ee:	0932a308 f2c40000 0000dade 20080000     ..2............ 
 80030fe:	45296210 2d636a4a 8f6b117c c7316a4a     .b)EJjc-|.k.Jj1.
 800310e:	ab52e839 3ce73084 ffffffff ffffffff     9.R..0.<........
 800311e:	ffffffff ffffffff ffffffff ffffffff     ................
 800312e:	ffffffff ffffffff ffffffff ffffffff     ................
 800313e:	ffffffff ffffffff ffffffff ffffffff     ................
 800314e:	ffffffff ffffffff ffffffff ffffffff     ................
 800315e:	ffffffff ffffffff ffffffff ffffffff     ................
 800316e:	ffffffff ffffffff ffffffff ffffffff     ................
 800317e:	ffffffff ffffffff ffffffff ffffffff     ................
 800318e:	ffffffff ffffffff ffffffff ffffffff     ................
 800319e:	ffffffff 0000e739 00000000 00000000     ....9...........
	...
 80031b6:	45290000 00006210 00000000 00000000     ..)E.b..........
	...
 80031ce:	24210000 8e6b2d63 0000e418 6eececd3     ..!$c-k........n
 80031de:	5affb8fe f9fef9fe f9fef9fe 19ff3aff     ...Z.........:..
 80031ee:	19ffb8f6 18c6ffff 0000c408 4118066a     ............j..A
 80031fe:	01002519 31fd2359 a31038c6 00000000     .%..Y#.1.8......
 800320e:	00000000 20000000 29422529 ab526a4a     ....... )%B)JjR.
 800321e:	25214942 00002100 9ad6694a ffffffff     BI!%.!..Ji......
 800322e:	ffffffff ffffffff ffffffff ffffffff     ................
 800323e:	ffffffff ffffffff ffffffff ffffffff     ................
 800324e:	ffffffff ffffffff ffffffff ffffffff     ................
 800325e:	ffffffff ffffffff ffffffff ffffffff     ................
 800326e:	ffffffff ffffffff ffffffff ffffffff     ................
 800327e:	ffffffff ffffffff ffffffff ffffffff     ................
 800328e:	ffffffff ffffffff ffffffff ffffffff     ................
 800329e:	ffffffff ffffffff ffffffff ffffffff     ................
 80032ae:	59ceffff 00000000 00000000 00000000     ...Y............
 80032be:	00000000 518ce841 d29499ce 00006108     ....A..Q.....a..
	...
 80032d6:	c6618659 00002008 45290000 4a42af6b     Y.a.. ....)Ek.BJ
 80032e6:	a89a0000 4ec451fd 7bff15e6 f9fe3aff     .....Q.N...{.:..
 80032f6:	3afff9fe f5ddb8ee ffff19f7 00007094     ...:.........p..
 8003306:	c8c20028 20008ca3 00080000 d9fef0dc     (...... ........
 8003316:	8210d7bd 09428a4a 45296629 0000a210     ....J.B.)f)E....
 8003326:	00000000 21000000 af734529 45298e73     .......!)Es.s.)E
 8003336:	65290000 ffff55ad ffffffff ffffffff     ..)e.U..........
 8003346:	ffffffff ffffffff ffffffff ffffffff     ................
 8003356:	ffffffff ffffffff ffffffff ffffffff     ................
 8003366:	ffffffff ffffffff ffffffff ffffffff     ................
 8003376:	ffffffff ffffffff ffffffff ffffffff     ................
 8003386:	ffffffff ffffffff ffffffff ffffffff     ................
 8003396:	ffffffff ffffffff ffffffff ffffffff     ................
 80033a6:	ffffffff ffffffff ffffffff ffffffff     ................
 80033b6:	ffffffff ffffffff ef7bffff 00000000     ..........{.....
 80033c6:	00000000 24210000 dad6cf7b ffffffff     ......!${.......
 80033d6:	a318ffff 00000000 00000000 ae932419     .............$..
 80033e6:	a9a28bdb 00000000 c7390000 00008f73     ..........9.s...
 80033f6:	51fd0331 bbff34fe f5d536de 3aff97ee     1..Q.4...6.....:
 8003406:	d8f639ff 3af7d5cd 4d73ffff 96a50000     .9.....:..sM....
 8003416:	c7fa12fd 00004852 84810008 ffffd9f6     ....RH..........
 8003426:	0000af7b 4e6b8629 4d63af73 6a4acc52     {...).kNs.cMR.Jj
 8003436:	c739694a 00006108 eb620000 fffff7bd     Ji9..a....b.....
 8003446:	9ef7ffff ffff9ad6 ffffffff ffffffff     ................
 8003456:	ffffffff ffffffff ffffffff ffffffff     ................
 8003466:	ffffffff ffffffff ffffffff ffffffff     ................
 8003476:	ffffffff ffffffff ffffffff ffffffff     ................
 8003486:	ffffffff ffffffff ffffffff ffffffff     ................
 8003496:	ffffffff ffffffff ffffffff ffffffff     ................
 80034a6:	ffffffff ffffffff ffffffff ffffffff     ................
 80034b6:	ffffffff ffffffff ffffffff ffffffff     ................
 80034c6:	ffffffff ffffffff 6529ffff 00000000     ..........)e....
 80034d6:	694ac318 ffff75ad ffffffff ffffffff     ..Ji.u..........
 80034e6:	00002842 00000000 04210000 72a41495     B(........!....r
 80034f6:	067aa7ba 00000000 8a4a0000 0000c739     ..z.......J.9...
 8003506:	a2308210 99e6277a 7affffff d9ee97ee     ..0.z'.....z....
 8003516:	b8f619ff ddfffdff 00008862 ffff8eb5     ........b.......
 8003526:	83b18ce3 00004100 8bcba579 bef7ffff     .....A..y.......
 8003536:	0000a218 41080000 ec52c739 0d5b4e63     .......A9.R.cN[.
 8003546:	75ad5184 2c63518c 00002421 8a520000     .Q.u.Qc,!$....R.
 8003556:	ffffb6b5 ffffffff ffffffff ffffffff     ................
 8003566:	ffffffff ffffffff ffffffff ffffffff     ................
 8003576:	ffffffff ffffffff ffffffff ffffffff     ................
 8003586:	ffffffff ffffffff ffffffff ffffffff     ................
 8003596:	ffffffff ffffffff ffffffff ffffffff     ................
 80035a6:	ffffffff ffffffff ffffffff ffffffff     ................
 80035b6:	ffffffff ffffffff ffffffff ffffffff     ................
 80035c6:	ffffffff ffffffff ffffffff ffffffff     ................
 80035d6:	ffffffff ffffffff 000096b5 d39c6631     ............1f..
 80035e6:	ffffbef7 ffffffff ffffffff f39cffff     ................
	...
 80035fe:	55ad2842 318496ad 268a2ab3 00000000     B(.U...1.*.&....
 800360e:	e8392108 00400000 727c6fd4 8018c639     .!9...@..o|r9...
 800361e:	13ade939 defffeff f5e577ee 8c524fa4     9........w...OR.
 800362e:	01ac686b 35bd90cd 0351ccdb 896a0000     kh.....5..Q...j.
 800363e:	7cf76bab ec52bdf7 00008731 00000000     .k.|..R.1.......
 800364e:	21080000 8a4a4521 1084ec5a 96ad56ad     ...!!EJ.Z....V..
 800365e:	107c34a5 00004529 c3180000 ffff3ce7     .4|.)E.......<..
 800366e:	ffffffff ffffffff ffffffff ffffffff     ................
 800367e:	ffffffff ffffffff ffffffff ffffffff     ................
 800368e:	ffffffff ffffffff ffffffff ffffffff     ................
 800369e:	ffffffff ffffffff ffffffff ffffffff     ................
 80036ae:	ffffffff ffffffff ffffffff ffffffff     ................
 80036be:	ffffffff ffffffff ffffffff ffffffff     ................
 80036ce:	ffffffff ffffffff ffffffff ffffffff     ................
 80036de:	ffffffff ffffffff ffffffff ffffffff     ................
 80036ee:	ef7bd294 ffffffff ffffffff ffffffff     ..{.............
 80036fe:	ffffffff 6529ffff 00000000 29420000     ......)e......B)
 800370e:	528cb7b5 283aec5a 68a24782 00002108     ...RZ.:(.G.h.!..
 800371e:	a3106210 60980000 ffffedfb a2acffff     .b.....`........
 800372e:	444a2031 34b5ec5a 53bdd9ee 8d8b6862     1 JDZ..4...Sbh..
 800373e:	8b93b5cd 32c5cf9b 00006ecc 9dff9384     .......2.n......
 800374e:	ffffd8fe 00002852 a318af73 00000000     ....R(..s.......
 800375e:	00000000 c839a310 cb52ab52 76ad928c     ......9.R.R....v
 800376e:	55a535a5 c318149d 00000000 ffff0c63     .5.U........c...
 800377e:	ffffffff ffffffff ffffffff ffffffff     ................
 800378e:	ffffffff ffffffff ffffffff ffffffff     ................
 800379e:	ffffffff ffffffff ffffffff ffffffff     ................
 80037ae:	ffffffff ffffffff ffffffff ffffffff     ................
 80037be:	ffffffff ffffffff ffffffff ffffffff     ................
 80037ce:	ffffffff ffffffff ffffffff ffffffff     ................
 80037de:	ffffffff ffffffff ffffffff ffffffff     ................
 80037ee:	ffffffff ffffffff ffffffff ffffffff     ................
 80037fe:	ffffffff ffffffff ffffffff ffffffff     ................
 800380e:	ffffffff 000055ad 00000000 e7392108     .....U.......!9.
 800381e:	21088631 00000000 8bd3e338 00008228     1..!....8...(...
 800382e:	00002100 8adbe330 b1c4e5c9 6cc413bd     .!..0..........l
 800383e:	2fcd4ad5 53c58d93 b8e6d8ee 10ddfdff     .J./...S........
 800384e:	57e62ab3 97ee1aef 1084a569 9df7ffff     .*.W....i.......
 800385e:	ad83b8e6 00000000 4942ab52 00000000     ........R.BI....
 800386e:	00000000 4a4a2521 cc520d5b 1084cb52     ....!%JJ[.R.R...
 800387e:	f49c14a5 cf73b394 00002108 1ce70000     ......s..!......
 800388e:	ffffffff ffffffff ffffffff ffffffff     ................
 800389e:	ffffffff ffffffff ffffffff ffffffff     ................
 80038ae:	ffffffff ffffffff ffffffff ffffffff     ................
 80038be:	ffffffff ffffffff ffffffff ffffffff     ................
 80038ce:	ffffffff ffffffff ffffffff ffffffff     ................
 80038de:	ffffffff ffffffff ffffffff ffffffff     ................
 80038ee:	ffffffff ffffffff ffffffff ffffffff     ................
 80038fe:	ffffffff ffffffff ffffffff ffffffff     ................
 800390e:	ffffffff ffffffff ffffffff ffffffff     ................
 800391e:	ffffffff 0000a210 00000000 00000000     ................
	...
 8003936:	4ac32000 0000067a 00000000 abcb8569     . .Jz.......i...
 8003946:	25a28bc3 71ac2aab 53cd14bd 7bff15e6     ...%.*.q...S...{
 8003956:	5aff7bff 32e53bff bcff72ed d4e5dcff     .{.Z.;.2.r......
 8003966:	fffff1bc 17deffff 00000020 00000000     ........ .......
 8003976:	4e634529 2439a318 00000000 00000000     )EcN..9$........
 8003986:	ec5a6629 4a42ed5a 14a54d63 14a5b294     )fZ.Z.BJcM......
 8003996:	0000e841 8e730000 ffffffff ffffffff     A.....s.........
 80039a6:	ffffffff ffffffff ffffffff ffffffff     ................
 80039b6:	ffffffff ffffffff ffffffff ffffffff     ................
 80039c6:	ffffffff ffffffff ffffffff ffffffff     ................
 80039d6:	ffffffff ffffffff ffffffff ffffffff     ................
 80039e6:	ffffffff ffffffff ffffffff ffffffff     ................
 80039f6:	ffffffff ffffffff ffffffff ffffffff     ................
 8003a06:	ffffffff ffffffff ffffffff ffffffff     ................
 8003a16:	ffffffff ffffffff ffffffff ffffffff     ................
 8003a26:	ffffffff ffffffff 14a5ffff 00000000     ................
	...
 8003a3e:	c7390000 62102842 a2200000 00006549     ..9.B(.b.. .Ie..
 8003a4e:	82200000 269287a2 d0e46bc3 19ef39ff     .. ....&.k...9..
 8003a5e:	f9fe97ee 1affd8f6 d8f6f9f6 1afff9fe     ................
 8003a6e:	3aff5aff 19fff8fe 5bff9bff f6ddffff     .Z.:.......[....
 8003a7e:	00000010 00000000 2d5bc418 076a2100     ..........[-.!j.
 8003a8e:	00006cab 00000000 82100000 2d632942     .l..........B)c-
 8003a9e:	0c5b8a4a f39cb294 4108ef7b 04210000     J.[.....{..A..!.
 8003aae:	ffffffff ffffffff ffffffff ffffffff     ................
 8003abe:	ffffffff ffffffff ffffffff ffffffff     ................
 8003ace:	ffffffff ffffffff ffffffff ffffffff     ................
 8003ade:	ffffffff ffffffff ffffffff ffffffff     ................
 8003aee:	ffffffff ffffffff ffffffff ffffffff     ................
 8003afe:	ffffffff ffffffff ffffffff ffffffff     ................
 8003b0e:	ffffffff ffffffff ffffffff ffffffff     ................
 8003b1e:	ffffffff ffffffff ffffffff ffffffff     ................
 8003b2e:	ffffffff ffffffff ffffffff ffffffff     ................
 8003b3e:	0421ffff 00000000 65290000 75ad4d6b     ..!.......)ekM.u
 8003b4e:	34a5fbde 41088a52 00000000 00000000     ...4R..A........
 8003b5e:	03410000 469a8bd3 31ed29bb 5bff3bff     ..A....F.).1.;.[
 8003b6e:	19ff3aff f9fe3aff 16deaca3 3aff7bff     .:...:.......{.:
 8003b7e:	97eef9f6 19ff19ff 7bffd8fe f2ccffff     ...........{....
 8003b8e:	00000018 00000000 ab520000 20080519     ..........R.... 
 8003b9e:	e99272fd 00000000 00000000 25210000     .r............!%
 8003bae:	cb4a0c53 717ccb4a e73955a5 00000000     S.J.J.|q.U9.....
 8003bbe:	ffffbad6 ffffffff ffffffff ffffffff     ................
 8003bce:	ffffffff ffffffff ffffffff ffffffff     ................
 8003bde:	ffffffff ffffffff ffffffff ffffffff     ................
 8003bee:	ffffffff ffffffff ffffffff ffffffff     ................
 8003bfe:	ffffffff ffffffff ffffffff ffffffff     ................
 8003c0e:	ffffffff ffffffff ffffffff ffffffff     ................
 8003c1e:	ffffffff ffffffff ffffffff ffffffff     ................
 8003c2e:	ffffffff ffffffff ffffffff ffffffff     ................
 8003c3e:	ffffffff ffffffff ffffffff ffffffff     ................
 8003c4e:	00009ad6 ef7bc318 ffff99ce ffffffff     ......{.........
 8003c5e:	00004d6b 00000000 00000000 00000000     kM..............
 8003c6e:	00000000 a651a230 6dec09a3 7bff57f6     ....0.Q....m.W.{
 8003c7e:	f9fef9fe d5e59cff b4d56471 7bff5bf7     ........qd...[.{
 8003c8e:	32bdd5d5 19ff5aff ffffb8fe 2ab37def     ...2.Z.......}.*
 8003c9e:	00002018 c3180000 a6310000 00008a4a     . ........1.J...
 8003cae:	72fd2aab b1a494cd ee7bce8b 00004732     .*.r......{.2G..
 8003cbe:	ab52a200 8b526a52 4c53928c 00000000     ..R.RjR...SL....
 8003cce:	ffff1084 ffffffff ffffffff ffffffff     ................
 8003cde:	ffffffff ffffffff ffffffff ffffffff     ................
 8003cee:	ffffffff ffffffff ffffffff ffffffff     ................
 8003cfe:	ffffffff ffffffff ffffffff ffffffff     ................
 8003d0e:	ffffffff ffffffff ffffffff ffffffff     ................
 8003d1e:	ffffffff ffffffff ffffffff ffffffff     ................
 8003d2e:	ffffffff ffffffff ffffffff ffffffff     ................
 8003d3e:	ffffffff ffffffff ffffffff ffffffff     ................
 8003d4e:	ffffffff ffffffff ffffffff ffffffff     ................
 8003d5e:	b6b5dbde ffffdef7 ffffffff 25295def     .............])%
	...
 8003d82:	ed42e410 6ad3aa6a 9bffb3f5 f9fef9fe     ..B.j..j........
 8003d92:	77ee3aff 16d673cd 56de16d6 19f736de     .:.w.s.....V.6..
 8003da2:	f9fe19ff 5ce75aff e8aaf1e4 00000000     .....Z.\........
 8003db2:	8b4a0000 00004529 0000ab4a d4fd4451     ..J.)E..J...QD..
 8003dc2:	fefffdff dcffffff a7a8d1db a8d046b0     .............F..
 8003dd2:	a9d0eae0 8bd10ad9 0000a458 ffff2309     ........X....#..
 8003de2:	ffffffff ffffffff ffffffff ffffffff     ................
 8003df2:	ffffffff ffffffff ffffffff ffffffff     ................
 8003e02:	ffffffff ffffffff ffffffff ffffffff     ................
 8003e12:	ffffffff ffffffff ffffffff ffffffff     ................
 8003e22:	ffffffff ffffffff ffffffff ffffffff     ................
 8003e32:	ffffffff ffffffff ffffffff ffffffff     ................
 8003e42:	ffffffff ffffffff ffffffff ffffffff     ................
 8003e52:	ffffffff ffffffff ffffffff ffffffff     ................
 8003e62:	ffffffff ffffffff ffffffff ffffffff     ................
 8003e72:	ffffffff ffffffff 00002421 00000000     ........!$......
	...
 8003e8e:	a3180000 2d5b8f6b a992293a f9fef0f4     ....k.[-:)......
 8003e9e:	f9fe5bff f9f619ff 98deb8ee 15deb8e6     .[..............
 8003eae:	3affb8f6 d9fef9fe 73cdfdff 48728dfc     ...:.......s..rH
 8003ebe:	00000000 4d638310 0000c839 0000093a     ......cM9...:...
 8003ece:	19ffc328 fcfffcff 47d051d4 abf807f0     (........Q.G....
 8003ede:	aaf8cbf8 8af88af8 6af869f8 86a00cf9     .........i.j....
 8003eee:	53d42358 fff7bbe6 ffffffff ffffffff     X#.S............
 8003efe:	ffffffff ffffffff ffffffff ffffffff     ................
 8003f0e:	ffffffff ffffffff ffffffff ffffffff     ................
 8003f1e:	ffffffff ffffffff ffffffff ffffffff     ................
 8003f2e:	ffffffff ffffffff ffffffff ffffffff     ................
 8003f3e:	ffffffff ffffffff ffffffff ffffffff     ................
 8003f4e:	ffffffff ffffffff ffffffff ffffffff     ................
 8003f5e:	ffffffff ffffffff ffffffff ffffffff     ................
 8003f6e:	ffffffff ffffffff ffffffff ffffffff     ................
 8003f7e:	ffffffff ffffffff 8a52ffff 00000000     ..........R.....
	...
 8003f9e:	0d5b6208 6e6b0d5b 4118a721 93edacd3     .b[.[.kn!..A....
 8003fae:	19ff9bff 1afff9fe 77e63aff 52d512cd     .........:.w...R
 8003fbe:	3aff77ee 7afff9fe afec56de 4108cccb     .w.:...z.V.....A
 8003fce:	00000000 f07b8631 0000ab52 0000a310     ....1.{.R.......
 8003fde:	fdff4529 d0d3fcff 29f806d8 caf0aaf8     )E.........)....
 8003fee:	aaf0caf0 aaf8aaf8 aaf0caf0 ebf8aaf8     ................
 8003ffe:	05d0a9f0 6eda48d8 fff756dd ffffffff     .....H.n.V......
 800400e:	ffffffff ffffffff ffffffff ffffffff     ................
 800401e:	ffffffff ffffffff ffffffff ffffffff     ................
 800402e:	ffffffff ffffffff ffffffff ffffffff     ................
 800403e:	ffffffff ffffffff ffffffff ffffffff     ................
 800404e:	ffffffff ffffffff ffffffff ffffffff     ................
 800405e:	ffffffff ffffffff ffffffff ffffffff     ................
 800406e:	ffffffff ffffffff ffffffff ffffffff     ................
 800407e:	ffffffff ffffffff ffffffff ffffffff     ................
 800408e:	ffffffff ffffffff 00008a52 00000000     ........R.......
 800409e:	00000000 ef7bc318 0000ab5a 00000000     ......{.Z.......
 80040ae:	2d63ab52 728c4d63 23592100 4abb29b3     R.c-cM.r.!Y#.).J
 80040be:	dcffd4e5 f9fef9fe 97f65aff b8fe53dd     .........Z...S..
 80040ce:	f9fe39ff 1aef3aff 6eec52d5 0000a220     .9...:...R.n ...
 80040de:	00000000 f49c0842 0000ec5a 00000000     ....B...Z.......
 80040ee:	fbf7a220 06e072dc cbf86af8 aaf8caf8      ....r...j......
 80040fe:	caf0aaf0 aaf0aaf0 aaf8aaf8 caf8aaf0     ................
 800410e:	89d8caf0 06f869f8 8dca05e0 ffffbeef     .....i..........
 800411e:	ffffffff ffffffff ffffffff ffffffff     ................
 800412e:	ffffffff ffffffff ffffffff ffffffff     ................
 800413e:	ffffffff ffffffff ffffffff ffffffff     ................
 800414e:	ffffffff ffffffff ffffffff ffffffff     ................
 800415e:	ffffffff ffffffff ffffffff ffffffff     ................
 800416e:	ffffffff ffffffff ffffffff ffffffff     ................
 800417e:	ffffffff ffffffff ffffffff ffffffff     ................
 800418e:	ffffffff ffffffff ffffffff ffffffff     ................
 800419e:	ffffffff cb5affff 00000000 86316210     ......Z......b1.
 80041ae:	bacece73 fbdeffff 0000a739 66290000     s.......9.....)f
 80041be:	6e634e63 083255ad 09c32020 eccb6bbb     cNcn.U2.  ...k..
 80041ce:	f5dd6bbb 3aff5bff 3affd9fe 19ff9bff     .k...[.:...:....
 80041de:	19fff9fe 57de1aff 066239ff 00000000     .......W.9b.....
 80041ee:	c4180000 359d4d6b 61200842 00000000     ....kM.5B. a....
 80041fe:	6fe46331 6af88af0 a9e0c9e0 cbf8c9e8     1c.o...j........
 800420e:	aaf0cbf8 aaf8aaf0 aaf8aaf8 aaf8aaf8     ................
 800421e:	caf8caf8 aaf8a9e8 05e8aaf8 beefabc1     ................
 800422e:	ffffffff ffffffff ffffffff ffffffff     ................
 800423e:	ffffffff ffffffff ffffffff ffffffff     ................
 800424e:	ffffffff ffffffff ffffffff ffffffff     ................
 800425e:	ffffffff ffffffff ffffffff ffffffff     ................
 800426e:	ffffffff ffffffff ffffffff ffffffff     ................
 800427e:	ffffffff ffffffff ffffffff ffffffff     ................
 800428e:	ffffffff ffffffff ffffffff ffffffff     ................
 800429e:	ffffffff ffffffff ffffffff ffffffff     ................
 80042ae:	3ce7ffff 00000842 55a5cb5a ffff9def     ...<B...Z..U....
 80042be:	7dffffff 0000519c 00000000 cb524108     ...}.Q.......AR.
 80042ce:	56adaf73 00007184 6bd38569 8ee4acc3     s..V.q..i..k....
 80042de:	cdabccd3 b8ee36d6 19ff5bff f9fef9fe     .....6...[......
 80042ee:	5bfff9fe fcff36de 000094cd 00000000     ...[.6..........
 80042fe:	29420000 b38cb394 07720429 00000000     ..B)....).r.....
 800430e:	0bfa474a 449007d8 02682370 44900378     JG.....Dp#h.x..D
 800431e:	ebf8a8d0 caf0aaf8 aaf0caf0 aaf8aaf8     ................
 800432e:	aaf8caf0 88c8a9e8 caf8caf8 aed205f0     ................
 800433e:	fffffff7 ffffffff ffffffff ffffffff     ................
 800434e:	ffffffff ffffffff ffffffff ffffffff     ................
 800435e:	ffffffff ffffffff ffffffff ffffffff     ................
 800436e:	ffffffff ffffffff ffffffff ffffffff     ................
 800437e:	ffffffff ffffffff ffffffff ffffffff     ................
 800438e:	ffffffff ffffffff ffffffff ffffffff     ................
 800439e:	ffffffff ffffffff ffffffff ffffffff     ................
 80043ae:	ffffffff ffffffff ffffffff ffffffff     ................
 80043be:	f7bdffff 3ce78e73 ffffffff dbe6ffff     ....s..<........
 80043ce:	0058c769 00000008 00000000 8f6bc731     i.X.........1.k.
 80043de:	d7bdf39c 00008721 abcba8b2 4edc6edc     ....!........n.N
 80043ee:	6fcc2de4 36de98e6 f9f636de 5aff5aff     .-.o...6.6...Z.Z
 80043fe:	36e65aff fdffb8ee 00000421 00000000     .Z.6....!.......
 800440e:	0d5b0421 6e6355a5 4bab6118 00006118     !.[..Ucn.a.K.a..
 800441e:	44908340 01600370 03680268 01580268     @..Dp.`.h.h.h.X.
 800442e:	87b80260 caf8ebf8 caf0aaf0 aaf8aaf8     `...............
 800443e:	caf0caf0 a7c0cbf8 cbf887c8 05e08af8     ................
 800444e:	ffff77d5 ffffffff ffffffff ffffffff     .w..............
 800445e:	ffffffff ffffffff ffffffff ffffffff     ................
 800446e:	ffffffff ffffffff ffffffff ffffffff     ................
 800447e:	ffffffff ffffffff ffffffff ffffffff     ................
 800448e:	ffffffff ffffffff ffffffff ffffffff     ................
 800449e:	ffffffff ffffffff ffffffff ffffffff     ................
 80044ae:	ffffffff ffffffff ffffffff ffffffff     ................
 80044be:	ffffffff ffffffff ffffffff ffffffff     ................
 80044ce:	ffffffff ffffffff ffffffff 004831ac     .............1H.
 80044de:	24880080 00000000 25210000 f07b2d63     ...$......!%c-{.
 80044ee:	518476ad 03590000 0dd48bd3 6edc8fe4     .v.Q..Y........n
 80044fe:	0dcc2ddc 7bff98f6 57e677de 36de36de     .-.....{.w.W.6.6
 800450e:	77de57de 695afdff 00000000 41080000     .W.w..Zi.......A
 800451e:	d073494a c82996b5 10f52018 00006431     JIs...).. ..1d..
 800452e:	02380260 03780368 03700370 03700370     `.8.h.x.p.p.p.p.
 800453e:	01580268 cbf865a0 caf0caf8 aaf0aaf8     h.X..e..........
 800454e:	caf0aaf8 caf0aaf8 aaf0a7b8 07f8caf8     ................
 800455e:	7defead0 ffffffff ffffffff ffffffff     ...}............
 800456e:	ffffffff ffffffff ffffffff ffffffff     ................
 800457e:	ffffffff ffffffff ffffffff ffffffff     ................
 800458e:	ffffffff ffffffff ffffffff ffffffff     ................
 800459e:	ffffffff ffffffff ffffffff ffffffff     ................
 80045ae:	ffffffff ffffffff ffffffff ffffffff     ................
 80045be:	ffffffff ffffffff ffffffff ffffffff     ................
 80045ce:	ffffffff ffffffff ffffffff ffffffff     ................
 80045de:	ffffffff ffffffff 76c5ffff 01900028     ...........v(...
 80045ee:	84582df9 00000000 2d632108 cf734e5b     .-X......!c-[Ns.
 80045fe:	6a42f8bd c9aa0000 afe48bcb 6bbbafe4     ..Bj...........k
 800460e:	6ee46bbb 5aff77f6 5bff3aff b4cdb4cd     .k.n.w.Z.:.[....
 800461e:	ffffb8f6 000074c5 00000000 25210000     .....t........!%
 800462e:	35a58f6b 420034a5 d1f4e330 00200321     k..5.4.B0...!. .
 800463e:	02302378 03802260 03700370 03700370     x#0.`"..p.p.p.p.
 800464e:	03700378 87c00150 caf0ecf8 aaf0aaf0     x.p.P...........
 800465e:	aaf8aaf8 abf8caf0 a8c0a8d0 aaf8cbf8     ................
 800466e:	d5dc05e0 ffffffff ffffffff ffffffff     ................
 800467e:	ffffffff ffffffff ffffffff ffffffff     ................
 800468e:	ffffffff ffffffff ffffffff ffffffff     ................
 800469e:	ffffffff ffffffff ffffffff ffffffff     ................
 80046ae:	ffffffff ffffffff ffffffff ffffffff     ................
 80046be:	ffffffff ffffffff ffffffff ffffffff     ................
 80046ce:	dfff7def ffffffff ffffffff ffffffff     .}..............
 80046de:	ffffffff ffffffff ffffffff ffffffff     ................
 80046ee:	ffffffff ffffffff c460def7 0cf90178     ..........`.x...
 80046fe:	0000c9c0 00000000 4d638210 af730d5b     ..........cM[.s.
 800470e:	620055ad 8fe4477a 8fe42ab3 679a0ddc     .U.bzG...*.....g
 800471e:	4ee48bc3 7bff56f6 f9fe19ff 3aff36de     ...N.V.{.....6.:
 800472e:	3aeffdff 0000e320 00000000 cb528210     ...: .........R.
 800473e:	b7b5728c 0000f07b 84886120 02400028     .r..{... a..(.@.
 800474e:	02402378 03700238 03700378 03700370     x#@.8.p.x.p.p.p.
 800475e:	03680378 02700258 cbf8c9e8 aaf0aaf0     x.h.X.p.........
 800476e:	aaf8aaf0 aaf8caf0 86b0aae8 aaf8caf0     ................
 800477e:	31e306f0 ffffffff ffffffff ffffffff     ...1............
 800478e:	ffffffff ffffffff ffffffff ffffffff     ................
 800479e:	ffffffff ffffffff ffffffff ffffffff     ................
 80047ae:	ffffffff ffffffff ffffffff ffffffff     ................
 80047be:	ffffffff ffffffff ffffffff ffffffff     ................
 80047ce:	ffffffff ffffffff ffffffff dbd6bef7     ................
 80047de:	bad6fcd6 ffff7def ffffffff ffffffff     .....}..........
 80047ee:	ffffffff ffffffff ffffffff ffffffff     ................
 80047fe:	ffffffff ffffffff 0048af9b edf8aaf0     ..........H.....
 800480e:	00004350 00000000 4e63a310 af730d63     PC........cNc.s.
 800481e:	0000aa4a 0de4a99a ecbb2edc a8a2889a     J...............
 800482e:	ecd36edc bcff15ee 77e65aff 39ff97ee     .n.......Z.w...9
 800483e:	65315bf7 00000000 42080000 f07bcb52     .[1e.......BR.{.
 800484e:	96ad34a5 0000ab52 02800028 22502250     .4..R...(...P"P"
 800485e:	02580378 02380120 03802370 03700378     x.X. .8.p#..x.p.
 800486e:	03700370 01402258 ebf82598 aaf8caf8     p.p.X"@..%......
 800487e:	aaf8aaf0 aaf0caf0 a7b8cbf8 cbf887c0     ................
 800488e:	2be108f8 ffffbeef ffffffff ffffffff     ...+............
 800489e:	ffffffff ffffffff ffffffff ffffffff     ................
 80048ae:	ffffffff ffffffff ffffffff ffffffff     ................
 80048be:	ffffffff ffffffff ffffffff ffffffff     ................
 80048ce:	ffffffff ffffffff ffffffff ffffffff     ................
 80048de:	ffffffff ffffffff ffffffff b8e699d6     ................
 80048ee:	bef7ddff bef7bad6 ffffffff ffffffff     ................
 80048fe:	ffffffff ffffffff ffffffff ffffffff     ................
 800490e:	ffffffff feefffff 02984248 ccf8ccf8     ........HB......
 800491e:	00006460 00000000 8e6bc318 0d630c5b     `d........k.[.c.
 800492e:	40206200 b1b42ebc aadb6ed4 2ab3a8a2     .b @.....n.....*
 800493e:	ecd3b0ec f8fed0e4 94bd15de 7cefb9de     ...............|
 800494e:	00000f8c 00000000 29420000 92944e63     ..........B)cN..
 800495e:	76ad96b5 00000419 03800038 02602268     ...v....8...h"`.
 800496e:	03780370 01280238 23600240 03780378     p.x.8.(.@.`#x.x.
 800497e:	03800378 02400368 88d00250 aaf0ebf8     x...h.@.P.......
 800498e:	aaf8aaf0 caf0caf0 a8d8caf8 caf886b0     ................
 800499e:	06e08af8 ffffd7dd ffffffff ffffffff     ................
 80049ae:	ffffffff ffffffff ffffffff ffffffff     ................
 80049be:	ffffffff ffffffff ffffffff ffffffff     ................
 80049ce:	ffffffff ffffffff ffffffff ffffffff     ................
 80049de:	ffffffff 3cdfbeef 1cdf1cdf 3ce71cdf     .......<.......<
 80049ee:	ffffbef7 ffffffff 3ce7ffff 18ff77e6     ...........<.w..
 80049fe:	5bffb7f6 99ce9df7 ffff7def ffffffff     ...[.....}......
 8004a0e:	ffffffff ffffffff ffffffff ffffffff     ................
 8004a1e:	ffffffff 108cffff 66b80018 ebf8ecf8     ...........f....
 8004a2e:	0000c8b8 00000000 6e6ba318 49422d63     ..........knc-BI
 8004a3e:	67920000 b4e551fd d5e5b9de edc352ed     ...g.Q.......R..
 8004a4e:	4deccbcb 33cd09bb dadedad6 ffff7cf7     ...M...3.....|..
 8004a5e:	0000c739 41080000 4e636942 96b55284     9......ABicN.R..
 8004a6e:	094255a5 03310000 02700bbb 22500270     .UB...1...p.p.P"
 8004a7e:	03800248 02480378 01300230 22482238     H...x.H.0.0.8"H"
 8004a8e:	02580250 22300250 23780130 cbf8caf0     P.X.P.0"0.x#....
 8004a9e:	caf0aaf8 aaf0aaf8 caf0caf8 c9e8a6b0     ................
 8004aae:	06f0aaf8 fff730d3 ffffffff ffffffff     .....0..........
 8004abe:	ffffffff ffffffff ffffffff ffffffff     ................
 8004ace:	ffffffff ffffffff ffffffff ffffffff     ................
 8004ade:	ffffffff ffffffff ffffffff ffffffff     ................
 8004aee:	fbe6ffff fbee53c5 5cef5cef 1cdf3de7     .....S...\.\.=..
 8004afe:	dbdedbd6 fffffff7 78de7de7 15e6d8fe     .........}.x....
 8004b0e:	39fff9fe 58bed9ee dbd639c6 ffffffff     ...9...X.9......
 8004b1e:	ffffffff ffffffff ffffffff ffffffff     ................
 8004b2e:	ffffffff 63509def 66a80038 8af8cbf8     ......Pc8..f....
 8004b3e:	4230ecf8 00000000 4e638210 e4106e6b     ..0B......cNkn..
 8004b4e:	94ed8218 a7ca2de4 fffff6ed f8f6ddff     .....-..........
 8004b5e:	6bb34ec4 7ceff6cd 5bff9cff 16debbff     .N.k...|...[....
 8004b6e:	00000000 6a4a0000 d0734e63 35a5f8bd     ......JjcNs....5
 8004b7e:	00006629 8bbb8218 8689cef4 22480160     )f..........`.H"
 8004b8e:	22500128 23700378 22502368 02482240     (.P"x.p#h#P"@"H.
 8004b9e:	21200130 02300120 01300230 ebf84498     0. ! .0.0.0..D..
 8004bae:	aaf0cbf8 aaf0aaf8 cbf8aaf8 a8d887b8     ................
 8004bbe:	09f8aaf8 9de70be9 ffffffff ffffffff     ................
 8004bce:	ffffffff ffffffff ffffffff ffffffff     ................
 8004bde:	ffffffff ffffffff ffffffff ffffffff     ................
 8004bee:	ffffffff ffffffff ffffffff ffffffff     ................
 8004bfe:	b5d5ffff 76fee8c2 3aff7bff fae6bcff     .......v.{.:....
 8004c0e:	3ce71bdf 57ded6c5 d8f6b9de 4ebc19f7     ...<...W.......N
 8004c1e:	dcfff2cc 98de97ee 9acedbde ffff1ce7     ................
 8004c2e:	ffffffff ffffffff ffffffff ffffffff     ................
 8004c3e:	ffffffff 004014a5 86b00168 a9f8ebf8     ......@.h.......
 8004c4e:	87b0ccf8 00000000 cc5a2000 00008f6b     ......... Z.k...
 8004c5e:	ffffeb6a 52e598f6 16e66acb bcffffff     j......R.j......
 8004c6e:	f6d577e6 3affffff f9fed8fe 4f9cfeff     .w.....:.......O
 8004c7e:	00000000 2d634529 34a50d5b 2521149d     ....)Ec-[..4..!%
 8004c8e:	8a4a0000 dafe5def 4ec411c5 01380050     ..J..].....NP.8.
 8004c9e:	02380238 02480240 22582250 03780378     8.8.@.H.P"X"x.x.
 8004cae:	22502368 02302240 01200020 45a00148     h#P"@"0. . .H..E
 8004cbe:	cbf8ebf8 aaf0caf0 cae0aaf8 88d84490     .............D..
 8004cce:	28f0ebf8 5cef8698 ffffffff ffffffff     ...(...\........
 8004cde:	ffffffff ffffffff ffffffff ffffffff     ................
 8004cee:	ffffffff ffffffff ffffffff ffffffff     ................
 8004cfe:	ffffffff ffffffff ffffffff ffffffff     ................
 8004d0e:	99deffff b3f5e7b2 f9febcff f5d5f8fe     ................
 8004d1e:	ffff57de abbbf6dd 5aff7bff b8ee3aff     .W.......{.Z.:..
 8004d2e:	f6d512bd 39ff7bff dff7fdff ffffbad6     .....{.9........
 8004d3e:	ffffffff ffffffff ffffffff ffffffff     ................
 8004d4e:	ffffffff 0040d3a4 66a00160 08f08af8     ......@.`..f....
 8004d5e:	a9f828e8 00002228 87310000 00008f6b     .(..("....1.k...
 8004d6e:	feffad8b dcff5aff 6acbd5ed fffffbee     .....Z.....j....
 8004d7e:	5bff3aff f9fed9fe 19fffafe 0b6bfeff     .:.[..........k.
 8004d8e:	21080000 ab4aab4a 9294728c 00004208     ...!J.J..r...B..
 8004d9e:	ffff4f94 ffffffff ffffffff 00186a72     .O..........rj..
 8004dae:	02400238 02300238 03580128 03700378     8.@.8.0.(.X.x.p.
 8004dbe:	03780378 c8c80378 2130a7a0 01500018     x.x.x.....0!..P.
 8004dce:	c9e04490 ebf8ebf8 87b0ebf8 ebf82370     .D..........p#..
 8004dde:	0068ebf8 ffffab72 ffffffff ffffffff     ..h.r...........
 8004dee:	ffffffff ffffffff ffffffff ffffffff     ................
 8004dfe:	ffffffff ffffffff ffffffff ffffffff     ................
 8004e0e:	ffffffff ffffffff ffffffff ffffffff     ................
 8004e1e:	ffffffff 8bc354cd 5bff56ee d9eedcff     .....T...V.[....
 8004e2e:	feff77de 29bbb5d5 9cff73dd 3afff8fe     .w.....).s.....:
 8004e3e:	77de9bff d8f656de dbd63bf7 ffff7def     ...w.V...;...}..
 8004e4e:	ffffffff ffffffff ffffffff ffffffff     ................
 8004e5e:	ffffffff 0048dad6 03980058 4dda4ce9     ......H.X....L.M
 8004e6e:	75f430db 00002b82 41080000 0100ec5a     .0.u.+.....AZ...
 8004e7e:	feffcd8b 19fff9fe 73e5bcff 9ef7b5dd     ...........s....
 8004e8e:	1aff98f6 19fff9fe 19fff9fe 4852fcff     ..............RH
 8004e9e:	04210000 4d63ec5a 6208317c 70940000     ..!.Z.cM|1.b...p
 8004eae:	19ffffff dff75bf7 ffffdef7 01307de7     .....[.......}0.
 8004ebe:	02400038 02300240 03680240 03700378     8.@.@.0.@.h.x.p.
 8004ece:	02700370 caf80268 cae02ef9 01406468     p.p.h.......hd@.
 8004ede:	03700158 66b065a0 86a087b0 c8d02480     X.p..e.f.....$..
 8004eee:	00382398 ffff18ce ffffffff ffffffff     .#8.............
 8004efe:	ffffffff ffffffff ffffffff ffffffff     ................
 8004f0e:	ffffffff ffffffff ffffffff ffffffff     ................
 8004f1e:	ffffffff ffffffff ffffffff ffffffff     ................
 8004f2e:	ffffffff 99e6ffff edab74c5 93ddd0d4     .........t......
 8004f3e:	b0c4d4d5 09b36bbb 98eeccbb 7bfffdff     .....k.........{
 8004f4e:	5aff9bff eccbd0d4 7dff2ec4 ffffffff     ...Z.......}....
 8004f5e:	ffffffff ffffffff ffffffff ffffffff     ................
 8004f6e:	ffffffff 296affff cfd20040 98fdb6f4     ......j)@.......
 8004f7e:	1bfeb8fd 000073dc 00000000 21008631     .....s......1..!
 8004f8e:	fdff0e94 f9fe19ff 59ff19ff 33c5b8f6     ...........Y...3
 8004f9e:	3aff77f6 f9fef9fe 3afff9fe 65317bff     .w.:.......:.{1e
 8004fae:	a7310000 2d634e63 00004108 feffb5c5     ..1.cNc-.A......
 8004fbe:	d8fe39ff 9df7d9fe fffffff7 c861ffff     .9............a.
 8004fce:	00200008 00180010 03680138 03700378     .. .....8.h.x.p.
 8004fde:	03700370 23780268 ecf8a9e0 c8c8ecf8     p.p.h.x#........
 8004fee:	01582370 01580150 23700268 01600268     p#X.P.X.h.p#h.`.
 8004ffe:	06710048 ffffffff ffffffff ffffffff     H.q.............
 800500e:	ffffffff ffffffff ffffffff ffffffff     ................
 800501e:	ffffffff ffffffff ffffffff ffffffff     ................
 800502e:	ffffffff ffffffff ffffffff ffffffff     ................
 800503e:	ffffffff ffffffff f7d5ffff 4abbacb3     ...............J
 800504e:	2abb6bbb 068a2edc 31dda8a2 93e5f5dd     .k.*.......1....
 800505e:	cdcb11d5 6df4ccd3 557509a3 ffff9eef     .......m..uU....
 800506e:	ffffffff ffffffff ffffffff ffffffff     ................
 800507e:	ffffffff 56c5ffff dafdefca 71f337fd     .......V.....7.q
 800508e:	2ef26ff2 466232fc 00000000 00004108     .o...2bF.....A..
 800509e:	fdff4f9c f9fe19ff 5afff9fe 11cd77e6     .O.........Z.w..
 80050ae:	19ff3aff f9fef9fe 5afff9fe e3203aff     .:.........Z.: .
 80050be:	293a0000 83106e6b d5cd0000 19ffffff     ..:)kn..........
 80050ce:	1afff8fe 7bfff9fe dbdebeef 39ce1cdf     .......{.......9
 80050de:	e8594d73 0d7b3194 00400010 03700480     sMY..1{...@...p.
 80050ee:	03700370 01580378 caf02378 ecf8abf8     p.p.x.X.x#......
 80050fe:	2370e9e0 01400140 01500148 03700250     ..p#@.@.H.P.P.p.
 800510e:	72a40038 ffffffff ffffffff ffffffff     8..r............
 800511e:	ffffffff ffffffff ffffffff ffffffff     ................
 800512e:	ffffffff ffffffff ffffffff ffffffff     ................
 800513e:	ffffffff ffffffff ffffffff ffffffff     ................
 800514e:	ffffffff ffffffff ffffffff 13cddff7     ................
 800515e:	6eec49c3 87aaeddb c9a22792 53d5f1d4     .I.n.....'.....S
 800516e:	f1ccd1d4 cce32dd4 140d4ebc beef351d     .....-...N...5..
 800517e:	ffffffff ffffffff ffffffff ffffffff     ................
 800518e:	beefffff b6fc97d5 d3f399fd 49f08ce9     ...............I
 800519e:	07f008f0 0fdd0bea 00006118 00000000     .........a......
 80051ae:	fdffb1a4 f9fef9fe 7bff19ff 11d5d5dd     ...........{....
 80051be:	f9fe7bff f9fef9fe 7bfff9fe 4108b8ee     .{.........{...A
 80051ce:	2d630000 00006629 feff12ad f9fef9fe     ..c-)f..........
 80051de:	f9fe1aff d9e636de dade1cdf feff3cef     .....6.......<..
 80051ee:	9bff9bff ffffffff 0020929c 02700048     .......... .H.p.
 80051fe:	02680160 03780270 45980158 aaf8ebf8     `.h.p.x.X..E....
 800520e:	a9e0ebf8 64786588 44904488 00382370     .....exd.D.Dp#8.
 800521e:	def7a771 ffffffff ffffffff ffffffff     q...............
 800522e:	ffffffff ffffffff ffffffff ffffffff     ................
 800523e:	ffffffff ffffffff ffffffff ffffffff     ................
 800524e:	ffffffff ffffffff ffffffff ffffffff     ................
 800525e:	ffffffff ffffffff ffffffff 9ad6ffff     ................
 800526e:	cccb8cbb 67a2679a a481e691 feff72d5     .....g.g.....r..
 800527e:	fcffddff c8aa51e5 997618ff cf2b1505     .....Q....v...+.
 800528e:	ffff39ae ffffffff ffffffff ffffffff     .9..............
 800529e:	74d4fff7 d6fcd3f3 49e8f0ea aaf808f0     ...t.......I....
 80052ae:	6af8aaf8 30f5a9d8 00004b93 00000000     ...j...0.K......
 80052be:	fdfff2ac 19fff9fe 7bfff9fe 12d594dd     ...........{....
 80052ce:	f9fe7bff f9fe19ff bbfff9fe 000057e6     .{...........W..
 80052de:	ec5ae418 4f9c0000 f9feffff 3afff9fe     ..Z....O.......:
 80052ee:	58d697ee dff7beef 7cff7dff d8fef9fe     ...X.....}.|....
 80052fe:	d8f65aff dae6b4d5 f8bdffff 2789c338     .Z..........8..'
 800530e:	02584891 03700370 01600368 ebf8a7d0     .HX.p.p.h.`.....
 800531e:	cbf88af8 aaf8cae8 ebf8ebf8 648889f0     ...............d
 800532e:	ffff3cdf ffffffff ffffffff ffffffff     .<..............
 800533e:	ffffffff ffffffff ffffffff ffffffff     ................
 800534e:	ffffffff ffffffff ffffffff ffffffff     ................
 800535e:	ffffffff ffffffff ffffffff ffffffff     ................
 800536e:	ffffffff ffffffff ffffffff 57defbe6     ...............W
 800537e:	f6ddb8ee 73cd16de 0dbc90b4 53ddc9aa     .......s.......S
 800538e:	7bffbbff 6ba3b8ee 376e15ee 0d03d805     ...{...k..n7....
 800539e:	185e3104 5df73cef 7def3cef 7deffff7     .1^..<.].<.}...}
 80053ae:	14ec97dd cdf1d6fc 69f807f0 aaf8caf0     ...........i....
 80053be:	caf0aaf8 6ada09f0 611850e5 00000000     .......j.P.a....
 80053ce:	feff12ad 19fff9fe 7bfff9fe d0ccd4dd     ...........{....
 80053de:	f9fe5bff f9fef9fe dcfff9fe 0000f6d5     .[..............
 80053ee:	21006629 feff0429 f9fe3aff 97ee19ff     )f.!)....:......
 80053fe:	dff7b9d6 1af779de b8fe7bff f9fef8fe     .....y...{......
 800540e:	d9f63aff d9feb8f6 ffffbdff 39debeef     .:.............9
 800541e:	91cbb5dc 0060ea99 02600370 eaf82488     ......`.p.`..$..
 800542e:	caf8caf8 aae889d8 a9e8a9e0 08f8abf8     ................
 800543e:	ffff36e5 ffffffff ffffffff ffffffff     .6..............
 800544e:	ffffffff ffffffff ffffffff ffffffff     ................
 800545e:	ffffffff ffffffff ffffffff ffffffff     ................
 800546e:	ffffffff ffffffff ffffffff ffffffff     ................
 800547e:	ffffffff ffffffff beefffff 59ff57e6     .............W.Y
 800548e:	9bff7bff 39f7fdff 98fe9bef a7a20ac3     .{.....9........
 800549e:	ddff15de 94ddfdff 551dc992 6e0b3906     ...........U.9.n
 80054ae:	9605b705 34f4f2a3 54dc34ec 33d456d5     .......4.4.T.V.3
 80054be:	f6fc71d3 07f08ce9 caf0aaf8 aaf8aaf8     .q..............
 80054ce:	a9f0caf0 08e0aaf8 0cacceeb 00000000     ................
 80054de:	fcffada3 f9fe5aff 5bff19ff 4fc497ee     .....Z.....[...O
 80054ee:	5affd8fe f9fef9fe fcfff9fe 000094cd     ...Z............
 80054fe:	00002100 fcff77de f9fef9fe b9e619ff     .!...w..........
 800550e:	52ed5ce7 4a9be8ba 7cffb8e6 9bff5aff     .\.R...J...|.Z..
 800551e:	b8f697ee 19ff39ff b9de98ee ffffffff     .....9..........
 800552e:	55f4fbde 015813f4 03700168 87c80158     ...U..X.h.p.X...
 800553e:	caf8ebf8 cae8a9f0 225887b0 49f8eaf0     ..........X"...I
 800554e:	3ce788d8 ffffffff ffffffff ffffffff     ...<............
 800555e:	ffffffff ffffffff ffffffff ffffffff     ................
 800556e:	ffffffff ffffffff ffffffff ffffffff     ................
 800557e:	ffffffff ffffffff ffffffff ffffffff     ................
 800558e:	ffffffff ffffffff dff7ffff 36e699de     ...............6
 800559e:	7bff5aff 19ff5bff acbb94dd f2c46bb3     .Z.{.[.......k..
 80055ae:	73dd8cab 39fffdff f905f27c 4e0b1405     ...s...9|......N
 80055be:	f7055906 34fc5384 75fc54fc ceca50db     .Y...S.4.T.u.P..
 80055ce:	11fb16f5 aaf807f0 aaf8caf8 c9f0caf0     ................
 80055de:	aaf8caf0 29f8caf8 d2fd29d9 0000e649     .......).)..I...
 80055ee:	b3fda892 7bff5aff 5bff5aff edbbf9f6     .....Z.{.Z.[....
 80055fe:	ddff73e5 19ff5bff fdfff9fe 000073bd     .s...[.......s..
 800560e:	ad8b0000 f9feffff f9fef9fe def7f8fe     ................
 800561e:	a7b274c5 29bbcffc 9cff0eb4 f1cc76fe     .t.....).....v..
 800562e:	19f753c5 3aff19ff 16e656e6 feff1aff     .S.....:.V......
 800563e:	74d57ce7 0b92d2db 00780068 45a00260     .|.t....h.x.`..E
 800564e:	a9f8ebf8 a9e0caf8 4480ebf8 ecf84488     ...........D.D..
 800565e:	73dc05e8 ffffffff ffffffff ffffffff     ...s............
 800566e:	ffffffff ffffffff ffffffff ffffffff     ................
 800567e:	ffffffff ffffffff ffffffff ffffffff     ................
 800568e:	ffffffff ffffffff ffffffff ffffffff     ................
 800569e:	ffffffff ffffffff ffffffff 17d6bef7     ................
 80056ae:	afdc8fcc 0dcc8fdc 2ebcacb3 fdff76e6     .............v..
 80056be:	4ba377ee 11fd0dbc bb061455 52040d0b     .w.K....U......R
 80056ce:	18069a06 33fcb454 b6fc74fc 0fc313e4     ....T..3.t......
 80056de:	2bf1d6fc caf829f8 aaf0aaf0 aaf0aaf0     ...+.)..........
 80056ee:	aaf0aaf0 aaf8caf0 abda29f0 e32050e5     .........)...P .
 80056fe:	8ffca882 52ddafdc f0e411e5 cccbf0e4     .......R........
 800570e:	93e50ddc 7bffb8f6 feff9bff 000053bd     .......{.....S..
 800571e:	dcff6531 f9fe5aff 19fff9fe 5ce797ee     1e...Z.........\
 800572e:	a892dae6 afececcb ecc3ccd3 b6cdb0c4     ................
 800573e:	5aff1af7 f9fef9fe f8fe3aff feffd8f6     ...Z.....:......
 800574e:	79ff3ce7 34ecb5dd a440cd7a 02980070     .<.y...4z.@.p...
 800575e:	cbf8caf8 88c8caf0 cbf089d0 87b84368     ............hC..
 800576e:	6bd929f8 ffffdeef ffffffff ffffffff     .).k............
 800577e:	ffffffff ffffffff ffffffff ffffffff     ................
 800578e:	ffffffff ffffffff ffffffff ffffffff     ................
 800579e:	ffffffff ffffffff ffffffff ffffffff     ................
 80057ae:	ffffffff ffffffff ffffffff ffffffff     ................
 80057be:	eeb358de b4d56fc4 ddffb8ee 7afffdff     .X...o.........z
 80057ce:	b1bcfeff 49eb88aa f504d64d 17066a02     .......IM....j..
 80057de:	59061906 13fcf434 75fc95fc 75e414fc     ...Y4......u...u
 80057ee:	49f0f4fb aaf8a9f0 aaf0aaf0 aaf0aaf0     ...I............
 80057fe:	caf0aaf0 caf0aaf8 28e08af8 844149ba     ...........(.IA.
 800580e:	52fd0a93 0de42ddc cbd32de4 e9aae9b2     ...R.-...-......
 800581e:	6acbabc3 32e52ddc 9bfff5ed 0000b1ac     ...j.-.2........
 800582e:	ffff53b5 3aff3aff 7bff3aff 3cdf77e6     .S...:.:.:.{.w.<
 800583e:	cdc3ffff ebdb2aab f6cdecc3 feffbeef     .....*..........
 800584e:	d9fe19ff d8f61aff 58d657de ffff1be7     .........W.X....
 800585e:	b8f6dade b4fcbaff b3043795 44606639     .........7..9f`D
 800586e:	a9e806f0 a9d8a9d8 caf089d8 4478a7b0     ..............xD
 800587e:	06e8aaf0 ffff36dd ffffffff ffffffff     .....6..........
 800588e:	ffffffff ffffffff ffffffff ffffffff     ................
 800589e:	ffffffff ffffffff ffffffff ffffffff     ................
 80058ae:	ffffffff ffffffff ffffffff ffffffff     ................
 80058be:	ffffffff ffffffff ffffffff ffffffff     ................
 80058ce:	5de7ffff feffd9ee b8fe9cff 52edd4ed     ...]...........R
 80058de:	2dcc8fcc 0a8bcffc 4d0bcf13 7a06f404     ...-.......M...z
 80058ee:	f705f805 55fc7484 cfe2f3e3 b2db88c8     .....t.U........
 80058fe:	08f052fb aaf0caf0 aaf8aaf0 aaf0aaf0     .R..............
 800590e:	aaf8aaf0 aaf8aaf0 ebf8caf8 00480490     ..............H.
 800591e:	8bb3e470 ccc30dd4 479a29b3 77de0eb4     p........).G...w
 800592e:	90cc16de 29c3eccb 31fd8bd3 4110486a     .......)...1jH.A
 800593e:	56eef4f5 98f677f6 97f6f9fe 9defb5c5     ...V.w..........
 800594e:	93e5ffff cdbb29d3 fffffbde d8fe7cff     .....).......|..
 800595e:	f9fef9fe 77ee3aff 5bf777de deff9eff     .....:.w.w.[....
 800596e:	57d67de7 75f55af7 141592d3 f7055906     .}.W.Z.u.....Y..
 800597e:	07f80c6a caf8caf8 caf8caf8 a9e0ebf8     j...............
 800598e:	06e0a8d0 fff7f0da ffffffff ffffffff     ................
 800599e:	ffffffff ffffffff ffffffff ffffffff     ................
 80059ae:	ffffffff ffffffff ffffffff ffffffff     ................
 80059be:	ffffffff ffffffff ffffffff ffffffff     ................
 80059ce:	ffffffff ffffffff ffffffff ffffffff     ................
 80059de:	dfefffff 14f637de 8ed4b3ed 2abb8bc3     .....7.........*
 80059ee:	aefc4abb 2a020dcc 2d0b6701 5a067a0e     .J.....*.g.-.z.Z
 80059fe:	152d5906 75fcf3fb 13ec34ec 2fbb71db     .Y-....u.4...q./
 8005a0e:	48e8c690 aaf8cbf8 caf0aaf8 aaf0aaf0     ...H............
 8005a1e:	aaf0aaf0 aaf0aaf0 ebf8aaf0 016888c0     ..............h.
 8005a2e:	c3700058 87a209ab 32d5259a bbfffdff     X.p......%.2....
 8005a3e:	3af77bff 94d5b7e6 ccdb0ec4 0ba32772     .{.:........r'..
 8005a4e:	ecdbcffc 4ddc0ddc afd44ed4 7eef54c5     .......M.N...T.~
 8005a5e:	7cffffff 1ce70ebc 19ffffff f9fed8fe     ...|............
 8005a6e:	f9fe19ff 7bff1aff d8fe19ff f9fef8fe     .......{........
 8005a7e:	beef5bff 77eefade f16333f4 1c075505     .[.....w.3c..U..
 8005a8e:	cc999906 aaf808f8 aaf0aaf0 caf8aaf8     ................
 8005a9e:	05d0caf8 ffff4fc3 ffffffff ffffffff     .....O..........
 8005aae:	ffffffff ffffffff ffffffff ffffffff     ................
 8005abe:	ffffffff ffffffff ffffffff ffffffff     ................
 8005ace:	ffffffff ffffffff ffffffff ffffffff     ................
 8005ade:	ffffffff ffffffff ffffffff ffffffff     ................
 8005aee:	ffffffff 0aabfae6 89c205c1 2ddc2dc4     .............-.-
 8005afe:	f0fc10fd c801aa4a 8b028a02 7605ab0a     ....J..........v
 8005b0e:	f5ac9a06 54fcd6fc 94fc75fc b1d358fd     .......T.u...X..
 8005b1e:	46b00040 aaf8ecf8 caf0aaf0 aaf0aaf0     @..F............
 8005b2e:	aaf0aaf0 aaf0aaf0 cbf8aaf8 0270c9e0     ..............p.
 8005b3e:	88910160 66aa09b3 fdff6cbb bcfffeff     `......f.l......
 8005b4e:	9cffbcff ddffbcff 0dc4d8ee 0dcc6cbb     .............l..
 8005b5e:	cdcbccc3 abd30dcc 77e62abb 57d69cff     .........*.w...W
 8005b6e:	ffffbeef 7def7ac6 d8fe7bff f9fef9fe     .....z.}.{......
 8005b7e:	7bff19ff 32cdd8fe 5afff5dd 19fff9fe     ...{...2...Z....
 8005b8e:	ffffd9fe b7eef6d5 917b56fd 1906b204     .........V{.....
 8005b9e:	920cfb06 8af827d8 aaf0caf0 aaf0aaf0     .....'..........
 8005bae:	48f8aaf8 9de74ad1 ffffffff ffffffff     ...H.J..........
 8005bbe:	ffffffff ffffffff ffffffff ffffffff     ................
 8005bce:	ffffffff ffffffff ffffffff ffffffff     ................
 8005bde:	ffffffff ffffffff ffffffff ffffffff     ................
 8005bee:	ffffffff ffffffff ffffffff ffffffff     ................
 8005bfe:	ffffffff 39d6ffff 06b8abb1 abb3ebba     .......9........
 8005c0e:	ca5a8bb3 8b022902 8b02cc02 cb02e801     ..Z..)..........
 8005c1e:	2fface6a 17fdf3fb 54fc95fc 37fd55fc     j../.......T.U.7
 8005c2e:	0048c999 ebf888d0 aaf8aaf8 aaf8aaf0     ..H.............
 8005c3e:	aaf0aaf0 aaf0aaf8 ecf8aaf8 2370eae8     ..............p#
 8005c4e:	efd20058 469a52dc d1c487a2 90b411bd     X....R.F........
 8005c5e:	56de53d5 3aff97e6 36feffff 4ddcede3     .S.V...:...6...M
 8005c6e:	8bc3eccb b7e6d0d4 16de32cd d8f6dcff     .........2......
 8005c7e:	99d6b8e6 36de7de7 9bfff9f6 7bff3aff     .....}.6.....:.{
 8005c8e:	52dd7aff 73d5b0c4 3afff8f6 77ee19ff     .z.R...s...:...w
 8005c9e:	9def5bf7 f4f58cc3 126496fd b7057204     .[........d..r..
 8005cae:	f7055a06 49f84889 aaf0aaf8 aaf8aaf0     .Z...H.I........
 8005cbe:	caf8caf0 30d306f0 fffffff7 ffffffff     .......0........
 8005cce:	ffffffff ffffffff ffffffff ffffffff     ................
 8005cde:	ffffffff ffffffff ffffffff ffffffff     ................
 8005cee:	ffffffff ffffffff ffffffff ffffffff     ................
 8005cfe:	ffffffff ffffffff ffffffff ffffffff     ................
 8005d0e:	ffffffff ffffffff 39e6fff7 b3945ae6     ...........9.Z..
 8005d1e:	e9010000 ac020c03 49026a02 a939cb02     .........j.I..9.
 8005d2e:	08f807f8 d0f249f0 b6fc57fd 38fd54fc     .....I...W...T.8
 8005d3e:	004830db aae80160 aaf8ecf8 caf0aaf0     .0H.`...........
 8005d4e:	aaf8aaf8 ecf8cbf8 87b8ebf8 02682378     ............x#h.
 8005d5e:	0baa0058 f3e37afd 49abeaaa b0b4f1bc     X....z.....I....
 8005d6e:	0682678a 50ac8da3 d1d473c5 ecdb6acb     .g.....P.s...j..
 8005d7e:	6edc4ee4 15f6b0e4 afc4f1d4 7bff92e5     .N.n...........{
 8005d8e:	f5cd7aff f5ed9cf7 56ee2ebc 56f619ff     .z.........V...V
 8005d9e:	54c5b0c4 9bfffaee f9fe19ff 15def9f6     ...T............
 8005dae:	b9de5bef 2ddc6bbb d68c32fc 550dd304     .[...k.-.2.....U
 8005dbe:	79065906 07f8c959 aaf8caf8 aaf0aaf8     .Y.yY...........
 8005dce:	caf0caf0 a9d828f8 ffff9de7 ffffffff     .....(..........
 8005dde:	ffffffff ffffffff ffffffff ffffffff     ................
 8005dee:	ffffffff ffffffff ffffffff ffffffff     ................
 8005dfe:	ffffffff ffffffff ffffffff ffffffff     ................
 8005e0e:	ffffffff ffffffff ffffffff ffffffff     ................
 8005e1e:	ffffffff ffffffff ffffffff ffffffff     ................
 8005e2e:	a300e829 8b02ab0a eb02ab02 c9d8490a     )............I..
 8005e3e:	aaf8aaf8 28e849f8 f6fc6ff2 f6fcb6fc     .....I.(.o......
 8005e4e:	027032fb 24780030 ebf8c9e8 cbf8cbf8     .2p.0.x$........
 8005e5e:	cbf8ebf8 88c8c9e8 00504490 23600260     .........DP.`.`#
 8005e6e:	85800058 19fdd6fc 2cd411dc ffff3aff     X..........,.:..
 8005e7e:	68b24fbc 2dc48ee4 d4d590bc f1d473d5     .O.h...-.....s..
 8005e8e:	ecd3cccb 2cdccfdc 0bbbaedc 71dd89c2     .......,.......q
 8005e9e:	37d6f9ee b7fe1ae7 ecd329c3 90c46fdc     ...7.....)...o..
 8005eae:	ffff59d6 f9fe3aff 19fff9fe 3afff9fe     .Y...:.........:
 8005ebe:	5af71aff 6ad373d5 774d4feb 350d1405     ...Z.s.j.OMw...5
 8005ece:	9a065906 05e8e841 aaf8cbf8 aaf0aaf0     .Y..A...........
 8005ede:	aaf0aaf0 28e869f8 ffff7aee ffffffff     .....i.(.z......
 8005eee:	ffffffff ffffffff ffffffff ffffffff     ................
 8005efe:	ffffffff ffffffff ffffffff ffffffff     ................
 8005f0e:	ffffffff ffffffff ffffffff ffffffff     ................
 8005f1e:	ffffffff ffffffff ffffffff ffffffff     ................
 8005f2e:	ffffffff ffffffff ffffffff ffffffff     ................
 8005f3e:	0000559d ec020902 ca516a02 8af8c9c8     .U.......jQ.....
 8005f4e:	aaf8aaf8 89f8caf0 0dea08f0 b8fd16fd     ................
 8005f5e:	27d0d1fa 00400150 87b80268 66b8a8c8     ...'P.@.h......f
 8005f6e:	449066a0 00400268 65900260 03702368     .f.Dh.@.`..eh#p.
 8005f7e:	00400050 79fd8dca 8bc3f2db d4e58ee4     P.@....y........
 8005f8e:	abcb6bab 0de44ee4 5afff0e4 7affdcff     .k...N.....Z...z
 8005f9e:	50c4b8e6 8bcb69ba 89e04ccb 28aa08e0     ...P.i...L.....(
 8005fae:	fdffd2dd 2fbcf8e6 0cc40ddc faf62ab3     ......./.....*..
 8005fbe:	f9feffff 3afff9fe 5aff7bff f9fed9fe     .......:.{.Z....
 8005fce:	dcff1aff 4be377fe 1906125c 9605720c     .....w.K\....r..
 8005fde:	9a061906 04d80932 caf0cbf8 aaf0aaf0     ....2...........
 8005fee:	caf0aaf0 07e8aaf8 ffff57e5 ffffffff     .........W......
 8005ffe:	ffffffff ffffffff ffffffff ffffffff     ................
 800600e:	ffffffff ffffffff ffffffff ffffffff     ................
 800601e:	ffffffff ffffffff ffffffff ffffffff     ................
 800602e:	ffffffff ffffffff ffffffff ffffffff     ................
 800603e:	ffffffff ffffffff ffffffff ffffffff     ................
 800604e:	ab62bef7 a5580020 66c86578 aaf8abf8     ..b. .X.xe.f....
 800605e:	caf0aaf8 caf8caf0 08f8aaf8 34f46ff2     .............o.4
 800606e:	8af84bf1 2268a8c8 01480150 01500258     .K....h"P.H.X.P.
 800607e:	01580150 85a02268 87b0eae8 00500258     P.X.h"......X.P.
 800608e:	f3ace981 50d3a560 cec3f7fc ede30ccc     ....`..P........
 800609e:	8bc3c8a2 4edc8fe4 93e5abd3 f9fe9bff     .......N........
 80060ae:	f7ddfdff abd18ed2 08f807d8 28e06af8     .............j.(
 80060be:	f4ddcaba ebbb32d5 68a94bc3 10ddabb3     .....2...K.h....
 80060ce:	9bffb7fe 1aff9bff 8fccb4e5 9bffb4dd     ................
 80060de:	5af71aff ca82f4fd 3505f905 5906d00b     ...Z.......5...Y
 80060ee:	db06f805 04d84a32 aaf0ebf8 aaf8aaf8     ....2J..........
 80060fe:	c9f8aaf8 06e8caf8 ffff53dc ffffffff     .........S......
 800610e:	ffffffff ffffffff ffffffff ffffffff     ................
 800611e:	ffffffff ffffffff ffffffff ffffffff     ................
 800612e:	ffffffff ffffffff ffffffff ffffffff     ................
 800613e:	ffffffff ffffffff ffffffff ffffffff     ................
 800614e:	ffffffff ffffffff ffffffff ffffffff     ................
 800615e:	ffffffff 00702270 86b067c0 caf066b8     ....p"p..g...f..
 800616e:	a9f8caf8 caf8aaf0 89e8aaf0 69f849f0     .............I.i
 800617e:	caf889f0 caf8ebf8 c8d0a8d0 a8d088d0     ................
 800618e:	a8d8a8d0 0df9aae8 0168caf0 e8710030     ..........h.0.q.
 800619e:	ffffdef7 d1bb1bdf 34f4b3eb cfeccecb     ...........4....
 80061ae:	09abedcb 6edc6ee4 11e5ccd3 19ff5bff     .....n.n.....[..
 80061be:	15dd79ff 96fc76fc abd9d3f3 4af807e0     .y...v.........J
 80061ce:	c9b228d8 90dd0ed5 07e86bd2 8dc4abca     .(.......k......
 80061de:	d4f5efe4 6eccb4ed 77e6f1cc 3af77bff     .......n...w.{.:
 80061ee:	edcb11e5 ca3a8ffc 4d0b4e03 bb06f80d     ......:..N.M....
 80061fe:	fb06ba06 05d88739 aaf0ecf8 aaf0aaf8     ....9...........
 800620e:	aaf8caf0 06f0aaf8 ffff71db ffffffff     .........q......
 800621e:	ffffffff ffffffff ffffffff ffffffff     ................
 800622e:	ffffffff ffffffff ffffffff ffffffff     ................
 800623e:	ffffffff ffffffff ffffffff ffffffff     ................
 800624e:	ffffffff ffffffff ffffffff ffffffff     ................
 800625e:	ffffffff ffffffff ffffffff ffffffff     ................
 800626e:	ffffffff 0030cd9a 0cf94498 88d0a9e0     ......0..D......
 800627e:	caf8a9e8 aaf0caf8 a8c888c0 68e0a9d8     ...............h
 800628e:	caf8aaf8 c9d8c9d8 ccf80df9 cbf8cbf8     ................
 800629e:	cbf8cbf8 ecf8cbf8 00280398 def7e869     ..........(.i...
 80062ae:	ffffffff bef7ffff 14ecf5cc abbb70db     .............p..
 80062be:	2ab310f5 0fedcbcb 8fe40ddc ddff5aff     ...*.........Z..
 80062ce:	73d45af7 95fc34fc f6f417fd 28e88ed2     .Z.s.4.........(
 80062de:	69d909f8 2bca2ccb 6bf8a9e8 2ad269f0     ...i.,.+...k.i.*
 80062ee:	8cc3ebca 0dc44ab3 7bff9bff 8ff4f4f5     .....J.....{....
 80062fe:	ebf30cec 6a026c9b ab0a6601 560d970d     .....l.j.f.....V
 800630e:	af0b5605 24a80158 ebf8ebf8 cbf8ebf8     .V..X..$........
 800631e:	ebf8cbf8 06f0caf8 fff710db ffffffff     ................
 800632e:	ffffffff ffffffff ffffffff ffffffff     ................
 800633e:	ffffffff ffffffff ffffffff ffffffff     ................
 800634e:	ffffffff ffffffff ffffffff ffffffff     ................
 800635e:	ffffffff ffffffff ffffffff ffffffff     ................
 800636e:	ffffffff ffffffff ffffffff ffffffff     ................
 800637e:	ffffffff 8769dbde 66b80050 a9e80cf9     ......i.P..f....
 800638e:	c9e089d8 89d0c9e0 a9d8a8b8 a9e0a9e8     ................
 800639e:	ecf8aaf8 4248a8c0 28e86598 caf8a9f8     ......HB.e.(....
 80063ae:	caf8caf8 03a0caf8 cf930048 ffffffff     ........H.......
 80063be:	ffffffff ffffffff bbe6ffff 2681f3e3     ...............&
 80063ce:	09b3068a 4bbba8a2 8edc6dd4 13e692ed     .......K.m......
 80063de:	13e490cc 16fd96fc b6fcd6fc 8ff257fd     .............W..
 80063ee:	69f808f0 08e808e8 07d807e8 06d007d8     ...i............
 80063fe:	a9a106b8 2fdd0cbc 31fd71ed acc34dec     ......./.q.1.M..
 800640e:	2c632b83 29026a02 8b026a0a ab024a02     .+c,.j.).j...J..
 800641e:	43388a02 02680280 86a82488 67b887b8     ..8C..h..$.....g
 800642e:	66b887b8 07f888d0 ffffcfda ffffffff     ...f............
 800643e:	ffffffff ffffffff ffffffff ffffffff     ................
 800644e:	ffffffff ffffffff ffffffff ffffffff     ................
 800645e:	ffffffff ffffffff ffffffff ffffffff     ................
 800646e:	ffffffff ffffffff ffffffff ffffffff     ................
 800647e:	ffffffff ffffffff ffffffff ffffffff     ................
 800648e:	ffffffff 5defffff 00580048 ecf888c8     .......]H.X.....
 800649e:	aaf0caf8 aae8aae8 caf8caf0 ecf8caf8     ................
 80064ae:	87b8ebf8 00400378 23700028 00600168     ....x.@.(.p#h.`.
 80064be:	00600060 61480048 ffffd7c5 ffffffff     `.`.H.Ha........
 80064ce:	ffffffff ffffffff ffffffff 8a917dff     .............}..
 80064de:	83700040 66b04370 89a228b2 08c22abb     @.p.pC.f.(...*..
 80064ee:	f7fc70e3 0ef2d3f3 f6fc51f3 17fd37fd     .p.......Q...7..
 80064fe:	08f86cf1 4dd2cae8 2dc28dba 10d36eca     .l.....M...-.n..
 800650e:	2fea54e4 abd2a8d8 8752a9b2 090a0632     .T./......R.2...
 800651e:	2a028c02 8a022902 ab02ab02 0c038b02     ...*.)..........
 800652e:	01784721 03700380 01600260 03680158     !Gx...p.`.`.X.h.
 800653e:	44800370 6af8a9d0 b8dd69e8 ffffffff     p..D...j.i......
 800654e:	ffffffff ffffffff ffffffff ffffffff     ................
 800655e:	ffffffff ffffffff ffffffff ffffffff     ................
 800656e:	ffffffff ffffffff ffffffff ffffffff     ................
 800657e:	ffffffff ffffffff ffffffff ffffffff     ................
 800658e:	ffffffff ffffffff ffffffff ffffffff     ................
 800659e:	ffffffff ffffffff 0040af9b c8d80268     ..........@.h...
 80065ae:	ebf8ebf8 ebf8cbf8 caf8ebf8 a8c8c9e8     ................
 80065be:	01584590 42580048 fbdef4b4 d3acb6b5     .EX.H.XB........
 80065ce:	92a4109c dbde1094 ffffffff ffffffff     ................
 80065de:	ffffffff ffffffff ffffffff 7ad6ffff     ...............z
 80065ee:	00604368 47c00158 67c8aaf8 aae846c8     hC`.X..G...g.F..
 80065fe:	57fd35fc 07e071e3 edf108f0 98fd14f4     .5.W.q..........
 800660e:	28e813f4 2ef248f0 d9fdd6fc 78fd37fd     ...(.H.......7.x
 800661e:	0bf9f6fc 29f809f8 044828c8 04012200     .......).(H.."..
 800662e:	8b0a2902 ab02ab02 cc028b02 e9110d03     .)..............
 800663e:	02780370 03780370 03700378 45900268     p.x.p.x.x.p.h..E
 800664e:	ebf8c8d0 88e0cbf8 d4cc02a0 ffffffff     ................
 800665e:	ffffffff ffffffff ffffffff ffffffff     ................
 800666e:	ffffffff ffffffff ffffffff ffffffff     ................
 800667e:	ffffffff ffffffff ffffffff ffffffff     ................
 800668e:	ffffffff ffffffff ffffffff ffffffff     ................
 800669e:	ffffffff ffffffff ffffffff ffffffff     ................
 80066ae:	ffefffff dbe65de7 6468d8dd 01600048     .....]....hdH.`.
 80066be:	a8c845a0 88d089d8 449086b0 02680378     .E.........Dx.h.
 80066ce:	00400058 1be76a7a ffffffff ffffffff     X.@.zj..........
 80066de:	ffffffff ffffffff ffffffff ffffffff     ................
 80066ee:	ffffffff ffffffff ffffffff ffffffff     ................
 80066fe:	0050d4bc 02600268 acf8a9e0 ebf049f8     ..P.h.`......I..
 800670e:	17fd54fc c9e0f3eb 28f069f8 b0f249e8     .T.......i.(.I..
 800671e:	30dbf9fd 08f808f0 31f3aaf0 f6fc16fd     ...0.......1....
 800672e:	08f06ce9 aaf8caf8 ccf8caf8 4260a9f8     .l............`B
 800673e:	e7014000 0d03cc02 cc022d03 02702631     .@.......-..1&p.
 800674e:	03700280 22482250 23600360 02680368     ..p.P"H"`.`#h.h.
 800675e:	02882380 00380068 ffff8e8b ffffffff     .#..h.8.........
 800676e:	ffffffff ffffffff ffffffff ffffffff     ................
 800677e:	ffffffff ffffffff ffffffff ffffffff     ................
 800678e:	ffffffff ffffffff ffffffff ffffffff     ................
 800679e:	ffffffff ffffffff ffffffff ffffffff     ................
 80067ae:	ffffffff ffffffff feefffff 54dc19de     ...............T
 80067be:	ecd1cfda 89d80ad9 0be9caf0 226066a8     .............f`"
 80067ce:	00400150 01480038 01500150 00480148     P.@.8.H.P.P.H.H.
 80067de:	75c5e460 ffffffff ffffffff ffffffff     `..u............
 80067ee:	ffffffff ffffffff ffffffff ffffffff     ................
 80067fe:	ffffffff ffffffff ffffffff ffffffff     ................
 800680e:	0260fff7 02600058 eaf02378 69f08af8     ..`.X.`.x#.....i
 800681e:	b8fdd3f3 0ad994ec caf849f8 08f049f8     .........I...I..
 800682e:	57ed8ff2 29f88bd1 28f069f8 8cf1cdf1     ...W...).i.(....
 800683e:	a9f849f0 aaf8aaf8 27f8c9f8 12aa48f8     .I.........'.H..
 800684e:	a400511a 49126501 8440c711 02800188     .Q...e.I..@.....
 800685e:	03780370 01400260 02500240 01402358     p.x.`.@.@.P.X#@.
 800686e:	62380010 b2ac519c fffffff7 ffffffff     ..8b.Q..........
 800687e:	ffffffff ffffffff ffffffff ffffffff     ................
 800688e:	ffffffff ffffffff ffffffff ffffffff     ................
 800689e:	ffffffff ffffffff ffffffff ffffffff     ................
 80068ae:	ffffffff ffffffff ffffffff ffffffff     ................
 80068be:	ffffffff d7cdffff ace130db 06e007d8     .........0......
 80068ce:	08f807f0 49f829f8 aaf869f8 c9e0ebf8     .....).I.i......
 80068de:	88c088d0 86a08698 88c888c0 25a887c0     ...............%
 80068ee:	ffff0fb3 ffffffff ffffffff ffffffff     ................
 80068fe:	ffffffff ffffffff ffffffff ffffffff     ................
 800690e:	ffffffff ffffffff ffffffff ffffffff     ................
 800691e:	35c5ffff 00484150 65a80158 69f0ebf8     ...5PAH.X..e...i
 800692e:	52f30bf1 0fdb99fd aaf807e8 89f0caf0     ...R............
 800693e:	edf108f8 2ad170c3 aaf869f8 49f029f0     .....p.*.i...).I
 800694e:	aaf8aaf8 a8f8c9f8 f1918ab0 1f441863     ............c.D.
 800695e:	3e5c9f5c 0120732a 01500040 03782378     \.\>*s .@.P.x#x.
 800696e:	03780378 03780378 02680478 00180030     x.x.x.x.x.h.0...
 800697e:	1bdf308c ffffffff ffffffff ffffffff     .0..............
 800698e:	ffffffff ffffffff ffffffff ffffffff     ................
 800699e:	ffffffff ffffffff ffffffff ffffffff     ................
 80069ae:	ffffffff ffffffff ffffffff ffffffff     ................
 80069be:	ffffffff ffffffff ffffffff ffffffff     ................
 80069ce:	dff7ffff 0070ad7b 08f806f0 caf889f8     ....{.p.........
 80069de:	aaf0aaf8 caf0aaf8 aaf0caf0 caf8aaf0     ................
 80069ee:	cbf8cbf8 ebf8ebf8 cbf8cbf8 abf8cbf8     ................
 80069fe:	ecc989f0 fff756d5 ffffffff ffffffff     .....V..........
 8006a0e:	ffffffff ffffffff ffffffff ffffffff     ................
 8006a1e:	ffffffff ffffffff ffffffff ffffffff     ................
 8006a2e:	ffffffff 0c733cef 02500018 ecf8c9f8     .....<s...P.....
 8006a3e:	08f829f8 95ec2ef2 49f8ccd1 caf8aaf0     .).........I....
 8006a4e:	08f8aaf8 ecc9cce1 aaf869f8 a9f8a9f8     .........i......
 8006a5e:	a9e8a9f8 ed40cb98 1b0b8f00 9f5c1f55     ......@.....U.\.
 8006a6e:	f93a3e54 af009509 00300418 01600048     T>:.......0.H.`.
 8006a7e:	03780370 01680278 01300030 b6bd285a     p.x.x.h.0.0.Z(..
 8006a8e:	ffffffff ffffffff ffffffff ffffffff     ................
 8006a9e:	ffffffff ffffffff ffffffff ffffffff     ................
 8006aae:	ffffffff ffffffff ffffffff ffffffff     ................
 8006abe:	ffffffff ffffffff ffffffff ffffffff     ................
 8006ace:	ffffffff ffffffff ffffffff ffffffff     ................
 8006ade:	e45834bd 69e80068 caf0ebf8 aaf0aaf8     .4X.h..i........
 8006aee:	aaf8aaf0 aaf8aaf8 aaf8aaf8 aaf8aaf8     ................
 8006afe:	aaf0aaf0 caf0aaf8 aaf8aaf8 caf0aaf8     ................
 8006b0e:	07f0aaf8 cfda05d8 ffff7ae6 ffffffff     .........z......
 8006b1e:	ffffffff ffffffff ffffffff ffffffff     ................
 8006b2e:	ffffffff ffffffff ffffffff ffffffff     ................
 8006b3e:	ffffffff 9ee7ffff 02000300 cac88560     ............`...
 8006b4e:	aaf8caf0 aef908f8 88f82dfa c9f8caf8     .........-......
 8006b5e:	c9f8c9f8 a8f068f8 89f8caf8 cbb8c9d8     .....h..........
 8006b6e:	ef20ed78 54011201 5722f100 f93a3e54     x. ....T.."WT>:.
 8006b7e:	0c005209 b511b000 72429722 4338a630     .R......".Br0.8C
 8006b8e:	00300038 64380238 9ace084a ffffffff     8.0.8.8dJ.......
 8006b9e:	ffffffff ffffffff ffffffff ffffffff     ................
 8006bae:	ffffffff ffffffff ffffffff ffffffff     ................
 8006bbe:	ffffffff ffffffff ffffffff ffffffff     ................
 8006bce:	ffffffff ffffffff ffffffff ffffffff     ................
 8006bde:	ffffffff ffffffff ffffffff ec82ffff     ................
 8006bee:	00780030 cbf8cbf8 aaf0aaf8 aaf8caf0     0.x.............
 8006bfe:	aaf8aaf0 ebf8cbf8 ebf8ebf8 caf8cbf8     ................
 8006c0e:	aaf8caf0 caf0aaf8 aaf8aaf8 caf0aaf0     ................
 8006c1e:	aaf8aaf8 06f089f8 4fbb06d8 ffffffef     ...........O....
 8006c2e:	ffffffff ffffffff ffffffff ffffffff     ................
 8006c3e:	ffffffff ffffffff ffffffff ffffffff     ................
 8006c4e:	ffffffff ffffffff 0300d06b 64008600     ........k......d
 8006c5e:	85486420 4680a768 ed908a90 cba0cb98      dH.h..F........
 8006c6e:	cca0cba0 a978cb98 ef38ac60 32011011     ......x.`.8....2
 8006c7e:	34015301 af00f100 10098e00 8d000f09     .S.4............
 8006c8e:	962a3109 1e547a43 1f4c5f5c db4bdc43     .1*.CzT.\_L.C.K.
 8006c9e:	d021923a b36b0d00 ffffffff ffffffff     :.!...k.........
 8006cae:	ffffffff ffffffff ffffffff ffffffff     ................
 8006cbe:	ffffffff ffffffff ffffffff ffffffff     ................
 8006cce:	ffffffff ffffffff ffffffff ffffffff     ................
 8006cde:	ffffffff ffffffff ffffffff ffffffff     ................
 8006cee:	ffffffff ffffffff ffffffff 0040ac82     ..............@.
 8006cfe:	66b00058 a9f8ecf8 caf0caf0 aaf8aaf0     X..f............
 8006d0e:	ebf8cbf8 86b8a9d8 65986598 caf087c0     .........e.e....
 8006d1e:	cbf8ebf8 aaf8caf8 caf0aaf8 aaf8caf0     ................
 8006d2e:	aaf0aaf8 caf0caf0 05d849f8 dbdecbb9     .........I......
 8006d3e:	ffffffff ffffffff ffffffff ffffffff     ................
 8006d4e:	ffffffff ffffffff ffffffff ffffffff     ................
 8006d5e:	ffffffff ffffffff 0719ffff a7000300     ................
 8006d6e:	6700ca00 42004400 12018900 11013101     ...g.D.B.....1..
 8006d7e:	f0001001 f000ef00 74013201 f2007401     .........2.t.t..
 8006d8e:	f008b000 542af319 14221322 9c4b982a     ......*T".".*.K.
 8006d9e:	7f5c1e54 9b431e54 7b439b43 9b43bc4b     T.\.T.C.C.C{K.C.
 8006dae:	df5c3f54 248c7701 ffffb6f7 ffffffff     T?\..w.$........
 8006dbe:	ffffffff ffffffff ffffffff ffffffff     ................
 8006dce:	ffffffff ffffffff ffffffff ffffffff     ................
 8006dde:	ffffffff ffffffff ffffffff ffffffff     ................
 8006dee:	ffffffff ffffffff ffffffff ffffffff     ................
 8006dfe:	ffffffff ffffffff ab6a9def 01680050     ..........j.P.h.
 8006e0e:	c9e82370 aaf8cbf8 caf0aaf0 ebf8caf8     p#..............
 8006e1e:	448067b8 01600268 01580158 23780260     .g.Dh.`.X.X.`.x#
 8006e2e:	87b86598 ebf8caf0 cbf8ebf8 ebf8ebf8     .e..............
 8006e3e:	aaf8cbf8 aaf8aaf0 aaf8aaf8 47c807f0     ...............G
 8006e4e:	ffff15cd ffffffff ffffffff ffffffff     ................
 8006e5e:	ffffffff ffffffff ffffffff ffffffff     ................
 8006e6e:	ffffffff ffffffff 0b3affff 85000200     ..........:.....
 8006e7e:	74091009 30093109 31090e01 53015309     ...t.1.0...1.S.S
 8006e8e:	32015201 74015301 11095309 35221001     .R.2.S.t.S...."5
 8006e9e:	bc4b3a43 df6c7f64 9f64df64 dc4b3e54     C:K.d.l.d.d.T>K.
 8006eae:	9c4b9b4b 9c4b9c4b bb4b7a43 dd4b7b4b     K.K.K.K.CzK.K{K.
 8006ebe:	1f2bdf43 00de2b7c b4de00de ffffffff     C.+.|+..........
 8006ece:	ffffffff ffffffff ffffffff ffffffff     ................
 8006ede:	ffffffff ffffffff ffffffff ffffffff     ................
 8006eee:	ffffffff ffffffff ffffffff ffffffff     ................
 8006efe:	ffffffff ffffffff ffffffff ffffffff     ................
 8006f0e:	ffffffff ffffffff 00082962 01580270     ........b)..p.X.
 8006f1e:	ecf866b0 caf0aaf8 caf8aaf8 66a80bf9     .f.............f
 8006f2e:	02580150 00580268 00600058 00300048     P.X.h.X.X.`.H.0.
 8006f3e:	00480028 65a00380 a8c867b8 66a887c0     (.H....e.g.....f
 8006f4e:	ebf888d0 cbf8ebf8 aaf0aaf0 08f8caf8     ................
 8006f5e:	53cc05d8 fffffff7 ffffffff ffffffff     ...S............
 8006f6e:	ffffffff ffffffff ffffffff ffffffff     ................
 8006f7e:	ffffffff ffffffff 906bffff 85080200     ..........k.....
 8006f8e:	cc008708 1009ed08 30093109 31093009     .........1.0.0.1
 8006f9e:	51093109 31093109 ef083109 15221009     .1.Q.1.1.1....".
 8006fae:	9c431a3b 97325b3b f83a562a 9b437a4b     ;.C.;[2.*V:.KzC.
 8006fbe:	fe53dd4b 7b43dc4b fd4b5a43 bf3bdf43     K.S.K.C{CZK.C.;.
 8006fce:	26ad366c 40de20ff c0cd80cd ffff92d6     l6.&. .@........
 8006fde:	ffffffff ffffffff ffffffff ffffffff     ................
 8006fee:	ffffffff ffffffff ffffffff ffffffff     ................
 8006ffe:	ffffffff ffffffff ffffffff ffffffff     ................
 800700e:	ffffffff ffffffff ffffffff ffffffff     ................
 800701e:	ffffffff dff7ffff 00400028 23800268     ........(.@.h..#
 800702e:	caf8c9f0 aaf8caf0 cbf8caf8 015066a8     .............fP.
 800703e:	02780368 67710058 4a828769 af938e93     h.x.X.qgi..J....
 800704e:	26690d8b 00380038 00600050 01580268     ..i&8.8.P.`.h.X.
 800705e:	44900260 c9e887b8 cbf8ebf8 caf0aaf0     `..D............
 800706e:	05d849f8 ffffd5d4 ffffffff ffffffff     .I..............
 800707e:	ffffffff ffffffff ffffffff ffffffff     ................
 800708e:	ffffffff ffffffff d494ffff 87000200     ................
 800709e:	84008608 64006400 65006400 66008500     .....d.d.d.e...f
 80070ae:	a9088800 ed08cb08 31091009 f0003109     ...........1.1..
 80070be:	4e008e00 9219cf00 9c439732 3f545f54     ...N....2.C.T_T?
 80070ce:	9b439c4b dd4b7b43 ff4b5f4c 4d5b576c     K.C.C{K.L_K.lW[M
 80070de:	80ffa0ac 80e6c0ee 60e601d6 5eefa1cd     ...........`...^
 80070ee:	ffffffff ffffffff ffffffff ffffffff     ................
 80070fe:	ffffffff ffffffff ffffffff ffffffff     ................
 800710e:	ffffffff ffffffff ffffffff ffffffff     ................
 800711e:	ffffffff ffffffff ffffffff ffffffff     ................
 800712e:	ffffffff d7c5ffff 02580010 88c00268     ..........X.h...
 800713e:	a9f80cf9 aaf8caf0 87c0ecf8 02680048     ............H.h.
 800714e:	00300060 ffff2d8b ffffffff ffffffff     `.0..-..........
 800715e:	fff7ffff 2d9355b5 6360a879 00580048     .....U.-y.`cH.X.
 800716e:	02600368 02700150 ebf886b0 aaf8cbf8     h.`.P.p.........
 800717e:	48f8caf0 dbe606d8 ffffffff ffffffff     ...H............
 800718e:	ffffffff ffffffff ffffffff ffffffff     ................
 800719e:	ffffffff ffffffff d8b5ffff 44000300     ...............D
 80071ae:	53090e09 0e090e09 ed08ec08 0d09ed08     ...S............
 80071be:	30090e09 52093109 52093209 d0003209     ...0.1.R.2.R.2..
 80071ce:	1522d000 5f5c9c43 7f5cbf5c 393b5a43     ..".C.\_\.\.CZ;9
 80071de:	ff4b9c4b ff435f4c ab5a5843 c0d540e6     K.K.L_C.CXZ..@..
 80071ee:	e2ace059 80e621f7 80eea0e6 16dfc0d5     Y....!..........
 80071fe:	ffffffff ffffffff ffffffff ffffffff     ................
 800720e:	ffffffff ffffffff ffffffff ffffffff     ................
 800721e:	ffffffff ffffffff ffffffff ffffffff     ................
 800722e:	ffffffff ffffffff ffffffff ffffffff     ................
 800723e:	ffffffff c859ffff 03600018 24800270     ......Y...`.p..$
 800724e:	cbf8c9e0 cbf8aaf0 2378eaf0 00500268     ..........x#h.P.
 800725e:	ae832130 ffffffff ffffffff ffffffff     0!..............
 800726e:	ffffffff ffffffff 5ce7ffff 0461cf9b     ...........\..a.
 800727e:	00600048 02500270 44880148 cbf8c9e0     H.`.p.P.H..D....
 800728e:	caf0caf8 29b907f0 ffff59d6 ffffffff     .......).Y......
 800729e:	ffffffff ffffffff ffffffff ffffffff     ................
 80072ae:	ffffffff ffffffff fcd6ffff 03002400     .............$..
 80072be:	5609cd00 95097509 74097509 74097409     ...V.u...u.t.t.t
 80072ce:	53097409 53095309 32095309 57225209     .t.S.S.S.S.2.R"W
 80072de:	df6cbd4b 1f54bf64 762a5a43 1f4cfa32     K.l.d.T.CZ*v2.L.
 80072ee:	de4b3f4c ea62764b a072a072 62e6e093     L?K.Kvb.r.r....b
 80072fe:	816a207b e0f621d6 60e680e6 639320f7     { j..!.....`. .c
 800730e:	ffff75ac ffffffff ffffffff ffffffff     .u..............
 800731e:	ffffffff ffffffff ffffffff ffffffff     ................
 800732e:	ffffffff ffffffff ffffffff ffffffff     ................
 800733e:	ffffffff ffffffff ffffffff ffffffff     ................
 800734e:	ffffffff 2238def7 03600030 01500380     ......8"0.`...P.
 800735e:	ebf82488 ebf8cbf8 02604498 4d7b0138     .$.......D`.8.{M
 800736e:	ffff3cdf ffffffff ffffffff ffffffff     .<..............
 800737e:	ffffffff ffffffff ffffffff def7ffff     ................
 800738e:	c879319c 01600050 02600368 66a80268     .1y.P.`.h.`.h..f
 800739e:	aaf8ebf8 06e0caf8 d5dc05c8 ffffffff     ................
 80073ae:	ffffffff ffffffff ffffffff ffffffff     ................
 80073be:	ffffffff ffffffff 099475ce c3208239     .........u..9. .
 80073ce:	27006400 ce004a00 32091201 10091009     .d.'.J.....2....
 80073de:	10091109 10091009 f0001009 d732b319     ..............2.
 80073ee:	5622d832 73111522 5f3b5822 7853df4b     2."V"..s"X;_K.Sx
 80073fe:	05732c5b a07ae07a e07a0083 22b5005a     [,s.z.z...z.Z.."
 800740e:	c05141c5 41ff01b5 80e660e6 60b480ff     .AQ....A.`.....`
 800741e:	ad9a0030 ffffffff ffffffff ffffffff     0...............
 800742e:	ffffffff ffffffff ffffffff ffffffff     ................
 800743e:	ffffffff ffffffff ffffffff ffffffff     ................
 800744e:	ffffffff ffffffff ffffffff ffffffff     ................
 800745e:	ffffffff 001875b5 02580138 03700378     .....u..8.X.x.p.
 800746e:	67c00158 86b00df9 02580160 18c60008     X..g....`.X.....
 800747e:	ffffffff ffffffff ffffffff ffffffff     ................
 800748e:	ffffffff ffffffff ffffffff ffffffff     ................
 800749e:	ffffffff 0050f3b4 03780060 01580368     ......P.`.x.h.X.
 80074ae:	ecf865a8 caf8cbf8 05d008f8 fffffbe6     .e..............
 80074be:	ffffffff ffffffff ffffffff ffffffff     ................
 80074ce:	ffffffff 97ceffff 406a4062 a1410052     ........b@j@R.A.
 80074de:	415a8162 63082229 7200a908 3209b400     b.ZA)".c...r...2
 80074ee:	32093101 32093209 52093109 f1003209     .1.2.2.2.1.R.2..
 80074fe:	52005200 53091000 b163b853 c072e66a     .R.R...SS.c.j.r.
 800750e:	e0822083 c193606a a2cd02d6 217be17a     . ..j`......z.{!
 800751e:	e07262de e1ee6183 80e6a0ee 62f7a0e6     .br..a.........b
 800752e:	00282179 ffff14b5 ffffffff ffffffff     y!(.............
 800753e:	ffffffff ffffffff ffffffff ffffffff     ................
 800754e:	ffffffff ffffffff ffffffff ffffffff     ................
 800755e:	ffffffff ffffffff ffffffff ffffffff     ................
 800756e:	ffffffff 00108a6a 02580238 03700378     ....j...8.X.x.p.
 800757e:	03700268 02684590 00302260 1be70018     h.p..Eh.`"0.....
 800758e:	ffffffff ffffffff ffffffff ffffffff     ................
 800759e:	ffffffff ffffffff ffffffff ffffffff     ................
 80075ae:	ffffffff 56c5ffff 00580469 02680370     .......Vi.X.p.h.
 80075be:	65980158 aaf8caf8 06f0caf8 fff7cfca     X..e............
 80075ce:	ffffffff ffffffff ffffffff ffffffff     ................
 80075de:	ffffffff 96d6ffff 608b606a c1490052     ........j`.`R.I.
 80075ee:	e09ba093 a16a6183 2663c072 d200ef29     .....aj.r.c&)...
 80075fe:	f300f400 7300f300 d3005300 b200f400     .......s.S......
 800760e:	493a8e21 056b264a e082207b 4083408b     !.:IJ&k.{ ...@.@
 800761e:	207ba06a a1eea1ac 20f720ff a1ac81e6     j.{ ..... . ....
 800762e:	21bd81e6 61bde051 60e620ff a1ff60e6     ...!Q..a. .`.`..
 800763e:	004062b4 9eef6360 ffffffff ffffffff     .b@.`c..........
 800764e:	ffffffff ffffffff ffffffff ffffffff     ................
 800765e:	ffffffff ffffffff ffffffff ffffffff     ................
 800766e:	ffffffff ffffffff ffffffff ffffffff     ................
 800767e:	ffffffff 00208751 03580238 03700380     ....Q. .8.X...p.
 800768e:	02700370 22680160 00002250 ffffcb72     p.p.`.h"P"..r...
 800769e:	ffffffff ffffffff ffffffff ffffffff     ................
 80076ae:	ffffffff ffffffff ffffffff ffffffff     ................
 80076be:	ffffffff ffffffff 62509def 03700050     ..........PbP.p.
 80076ce:	00400368 ebf866a8 aaf8aaf8 d4c404c0     h.@..f..........
 80076de:	ffffffff ffffffff ffffffff ffffffff     ................
 80076ee:	1be7ffff 73b5bff7 808b405a a162a172     .......sZ@..r.b.
 80076fe:	2083808b 608bc072 a0ee0083 6439c3a4     ... r..`......9d
 800770e:	464a464a 6773054a 2842087c 8362c739     JFJFJ.sg|.B(9.b.
 800771e:	20a482cd 608b6093 2083208b 806aa072     ... .`.`. . r.j.
 800772e:	62de019c a0ee40ff 80de60e6 00efc0ee     ...b.@...`......
 800773e:	81e6a0ee 217be072 a0eec1ee c0ee80e6     ....r.{!........
 800774e:	a278e1e6 35bd0048 ffffffff ffffffff     ..x.H..5........
 800775e:	ffffffff ffffffff ffffffff ffffffff     ................
 800776e:	ffffffff ffffffff ffffffff ffffffff     ................
 800777e:	ffffffff ffffffff ffffffff ffffffff     ................
 800778e:	ffffffff 0018af8b 02400238 03800370     ........8.@.p...
 800779e:	03700378 22482368 62280030 ffff1bdf     x.p.h#H"0.(b....
 80077ae:	ffffffff ffffffff ffffffff ffffffff     ................
 80077be:	ffffffff ffffffff ffffffff ffffffff     ................
 80077ce:	ffffffff ffffffff 18d6ffff 00580048     ............H.X.
 80077de:	02680370 a8d80268 caf8ebf8 26c048e8     p.h.h........H.&
 80077ee:	ffff36d5 ffffffff ffffffff ffffffff     .6..............
 80077fe:	61620ead 2131655a 80936062 e172007b     ..baZe1!b`..{.r.
 800780e:	e07a6083 4083c172 41e6e07a 4062c183     .`z.r..@z..A..b@
 800781e:	4083e09b a0ffa09b 4083e0f6 e0bce07a     ...@.......@z...
 800782e:	818b41ff 4083816a c072407b 61c5818b     .A..j..@{@r....a
 800783e:	e0f6e1f6 60e660e6 80e680e6 80e660e6     .....`.`.....`..
 800784e:	21f780e6 e05161a4 20ff42bd 60e660e6     ...!.aQ..B. .`.`
 800785e:	03a3a1ff 6fa30038 ffffffff ffffffff     ....8..o........
 800786e:	ffffffff ffffffff ffffffff ffffffff     ................
 800787e:	ffffffff ffffffff ffffffff ffffffff     ................
 800788e:	ffffffff ffffffff ffffffff ffffffff     ................
 800789e:	ffffffff 0020319c 01300238 03602240     .....1 .8.0.@"`.
 80078ae:	02580368 02300238 26590020 ffffffff     h.X.8.0. .Y&....
 80078be:	ffffffff ffffffff ffffffff ffffffff     ................
 80078ce:	ffffffff ffffffff ffffffff ffffffff     ................
 80078de:	ffffffff ffffffff ffffffff 005038ce     .............8P.
 80078ee:	23680160 02600260 ccf8c9e0 08f8caf8     `.h#`.`.........
 80078fe:	b2cb07d8 ffffffff ffffffff 57ce9def     ...............W
 800790e:	e07ac16a c028205a 808b415a e17a007b     j.z.Z (.ZA..{.z.
 800791e:	e072608b 007be072 c1ee8083 c049a062     .`r.r.{.....b.I.
 800792e:	a06a808b c0ff01b5 806ac1ac e1b4a072     ..j.......j.r...
 800793e:	219c81ff e1726162 019cc072 20f701f7     ...!bar.r...... 
 800794e:	80e6a0e6 00f7e0f6 60e680e6 80e660e6     ...........`.`..
 800795e:	00f760e6 4062e1d5 e1ee6183 60e6a0e6     .`....b@.a.....`
 800796e:	e1c480ff 6c8a0038 ffffffff ffffffff     ....8..l........
 800797e:	ffffffff ffffffff ffffffff ffffffff     ................
 800798e:	ffffffff ffffffff ffffffff ffffffff     ................
 800799e:	ffffffff ffffffff ffffffff ffffffff     ................
 80079ae:	ffffffff 00208b72 02380238 02380238     ....r. .8.8.8.8.
 80079be:	21300238 02380238 26510020 ffffffff     8.0!8.8. .Q&....
 80079ce:	ffffffff ffffffff ffffffff ffffffff     ................
 80079de:	ffffffff ffffffff ffffffff ffffffff     ................
 80079ee:	ffffffff ffffffff ffffffff 8f9bffff     ................
 80079fe:	02680038 02500368 6ae00368 88c86ae8     8.h.h.P.h..j.j..
 8007a0e:	029847d0 70ad0da4 c78b6b9c 6062437b     .G.....p.k..{Cb`
 8007a1e:	418ba06a 014a608b 217b8139 20834083     j..A.`J.9.{!.@. 
 8007a2e:	e0724083 e0720073 e1f6219c a0492152     .@r.s.r..!..R!I.
 8007a3e:	41834083 80ff41de a06aa2ac 40a4a072     .@.A.A....j.r..@
 8007a4e:	61a461ff a0724062 41de007b c0ee00f7     .a.ab@r.{..A....
 8007a5e:	61de20f7 a1a401b5 a0e6e1cd 80e680e6     . .a............
 8007a6e:	80e680e6 81ac01f7 61bde051 61e600f7     ........Q..a...a
 8007a7e:	c1e6e0ee ec790040 ffffffff ffffffff     ....@.y.........
 8007a8e:	ffffffff ffffffff ffffffff ffffffff     ................
 8007a9e:	ffffffff ffffffff ffffffff ffffffff     ................
 8007aae:	ffffffff ffffffff ffffffff ffffffff     ................
 8007abe:	ffffffff 0020096a 02380238 02400238     ....j. .8.8.8.@.
 8007ace:	22380238 02380238 8e8b0010 ffffffff     8.8"8.8.........
 8007ade:	ffffffff ffffffff ffffffff ffffffff     ................
 8007aee:	ffffffff ffffffff ffffffff ffffffff     ................
 8007afe:	ffffffff ffffffff ffffffff ffffffff     ................
 8007b0e:	00400b7a c2602258 027a4159 817a6392     z.@.X"`.YAz..cz.
 8007b1e:	007be072 606a606a a072606a 4083e07a     r.{.j`j`j`r.z..@
 8007b2e:	007bc172 c0728093 a16a2131 4083808b     r.{...r.1!j....@
 8007b3e:	e0724083 a072e17a e2f600b5 c149a141     .@r.z.r.....A.I.
 8007b4e:	60832083 40ff60e6 a06ae1b4 c193c072     . .`.`.@..j.r...
 8007b5e:	21b541ff 806a215a 60ffa1ac 01d620ff     .A.!Z!j....`. ..
 8007b6e:	c2ac81a4 a1cd22b5 a0eea1e6 81e6a1e6     ....."..........
 8007b7e:	61e661e6 01f7c1ee 029461a4 80e6c1ee     .a.a.....a......
 8007b8e:	40ff60e6 18b5018b ffffffff ffffffff     .`.@............
 8007b9e:	ffffffff ffffffff ffffffff ffffffff     ................
 8007bae:	ffffffff ffffffff ffffffff ffffffff     ................
 8007bbe:	ffffffff ffffffff ffffffff ffffffff     ................
 8007bce:	ffffffff 0018c859 02400240 01300238     ....Y...@.@.8.0.
 8007bde:	02380238 00302238 9ad60018 ffffffff     8.8.8"0.........
 8007bee:	ffffffff ffffffff ffffffff ffffffff     ................
 8007bfe:	ffffffff ffffffff ffffffff ffffffff     ................
 8007c0e:	ffffffff ffffffff bef7ffff 15c6b8d6     ................
 8007c1e:	005a0994 607bc172 a07ba08b 807ba073     ..Z.r.{`..{.s.{.
 8007c2e:	6083807b 40834083 c0724083 6083e07a     {..`.@.@.@r.z..`
 8007c3e:	017be172 61836083 405aa149 407ba08b     r.{..`.aI.Z@..{@
 8007c4e:	e0724083 c072e172 82e601d6 81416239     .@r.r.r.....9bA.
 8007c5e:	e072217b a0ffa1cd a07201b5 217b007b     {!r.......r.{.{!
 8007c6e:	c1e661e6 e07ac16a 41ffa2ee a28bc1ac     .a..j.z....A....
 8007c7e:	a2ac0394 81c541bd c2cdc1cd a2cdc2cd     .....A..........
 8007c8e:	a1cdc1cd 61e6a2c5 41de20f7 80e660de     .......a. .A.`..
 8007c9e:	a0ee60e6 bdf761de ffffffff ffffffff     .`...a..........
 8007cae:	ffffffff ffffffff ffffffff ffffffff     ................
 8007cbe:	ffffffff ffffffff ffffffff ffffffff     ................
 8007cce:	ffffffff ffffffff ffffffff ffffffff     ................
 8007cde:	ffffffff 0000af8b 02400240 02380238     ........@.@.8.8.
 8007cee:	02402238 00080030 ffff6a72 ffffffff     8"@.0...rj......
 8007cfe:	ffffffff ffffffff ffffffff ffffffff     ................
 8007d0e:	ffffffff ffffffff ffffffff ffffffff     ................
 8007d1e:	3ce7ffff 92bdb8de 65834a9c 6062a06a     ...<.....J.ej.b`
 8007d2e:	c08b0073 40838083 20834083 007b207b     s......@.@. { {.
 8007d3e:	207be072 40834083 e193c072 007ba18b     r.{ .@.@r.....{.
 8007d4e:	c1722083 808b407b 2152a16a 40836083     . r.{@..j.R!.`.@
 8007d5e:	c1724083 6083c16a e1cde1f6 81412131     .@r.j..`....1!A.
 8007d6e:	c072207b 81ff219c a07241bd c072207b     { r..!...Ar.{ r.
 8007d7e:	c1ee21de a093e172 218342c5 42834162     .!..r....B.!bA.B
 8007d8e:	a2a482a4 61c5e1b4 21dee2d5 40de40de     .......a...!.@.@
 8007d9e:	60de60de 41de21de a0ee80e6 80e680e6     .`.`.!.A........
 8007dae:	80e680e6 70d620de ffffffff ffffffff     ..... .p........
 8007dbe:	ffffffff ffffffff ffffffff ffffffff     ................
 8007dce:	ffffffff ffffffff ffffffff ffffffff     ................
 8007dde:	ffffffff ffffffff ffffffff ffffffff     ................
 8007dee:	ffffffff 296affff 02400020 02400238     ......j) .@.8.@.
 8007dfe:	00100138 17c60130 ffffffff ffffffff     8...0...........
 8007e0e:	ffffffff ffffffff ffffffff ffffffff     ................
 8007e1e:	ffffffff ffffffff ffffffff d4bdffff     ................
 8007e2e:	e1720994 406ac06a e07a606a 20832083     ..r.j.j@j`z.. . 
 8007e3e:	207b2083 e07a207b a06ac072 007ba072     . { { z.r.j.r.{.
 8007e4e:	4083818b 806a407b 82ffc193 606a61bd     ...@{@j......aj`
 8007e5e:	c1724083 6083c172 8162608b 608bc172     .@r.r..`.`b.r..`
 8007e6e:	e1724083 41a4816a 40b5a1ff 816a0129     .@r.j..A...@).j.
 8007e7e:	4083017b 21dea072 c06a01d6 c0722083     {..@r..!..j.. r.
 8007e8e:	41a4e2b4 417be072 205a4062 81a4a16a     ...Ar.{Ab@Z j...
 8007e9e:	40ff61e6 e0f640ff a0e6a0ee 80e680e6     .a.@.@..........
 8007eae:	80e680e6 80e680e6 80e660e6 80e680e6     .........`......
 8007ebe:	80e660e6 e3cd80ee ffff9eef ffffffff     .`..............
 8007ece:	ffffffff ffffffff ffffffff ffffffff     ................
 8007ede:	ffffffff ffffffff ffffffff ffffffff     ................
 8007eee:	ffffffff ffffffff ffffffff ffffffff     ................
 8007efe:	ffffffff 18ceffff 01300008 00302240     ..........0.@"0.
 8007f0e:	62180018 ffff55b5 ffffffff ffffffff     ...b.U..........
 8007f1e:	ffffffff ffffffff ffffffff ffffffff     ................
 8007f2e:	ffffffff ffffffff 56d6bff7 005a6683     ...........V.fZ.
 8007f3e:	007b806a 4083207b 207b407b a06ac072     j.{.{ .@{@{ r.j.
 8007f4e:	a072a06a 6183e07a a1ace193 02d621bd     j.r.z..a.....!..
 8007f5e:	c19381e6 017b4062 40ff61de 818ba1ee     ....b@{..a.@....
 8007f6e:	6083a06a 017ba16a 017b608b 40838162     j..`j.{..`{.b..@
 8007f7e:	c1724083 01b56162 c0acc0ff 41838141     .@r.ba......A..A
 8007f8e:	4083c172 81aca06a e07202d6 40832083     r..@j.....r.. .@
 8007f9e:	007b007b a16a217b c1726062 e1ffa1c5     {.{.{!j.b`r.....
 8007fae:	a1ee60ff 40de01d6 60e680e6 80e660e6     .`.....@...`.`..
 8007fbe:	80e680e6 80e680e6 80e680e6 80e680e6     ................
 8007fce:	60de80e6 40d680ee ffff7bef ffffffff     ...`...@.{......
 8007fde:	ffffffff ffffffff ffffffff ffffffff     ................
 8007fee:	ffffffff ffffffff ffffffff ffffffff     ................
 8007ffe:	ffffffff ffffffff ffffffff ffffffff     ................
 800800e:	ffffffff bef7ffff 00004962 01280000     ........bI....(.
 800801e:	7def96bd ffffffff ffffffff ffffffff     ...}............
 800802e:	ffffffff ffffffff ffffffff ffffffff     ................
 800803e:	3be7ffff a6834c94 0052447b 40836062     ...;.L..{DR.b`.@
 800804e:	20834083 a06ae07a 017ba072 61a4a193     .@. z.j.r.{....a
 800805e:	41c501b5 40dea1cd 01f7c1ee 00f720f7     ...A...@..... ..
 800806e:	e19321ff 42dec072 40e601f7 22d600f7     .!..r..B...@..."
 800807e:	007be07a e172017b 2083007b 207b017b     z.{.{.r.{.. {.{ 
 800808e:	e1724083 41bd806a 01b5c0ff 4083415a     .@r.j..A....ZA.@
 800809e:	007be172 20832083 6183a2ac 4083207b     r.{.. . ...a{ .@
 80080ae:	e1722083 606ac172 e2ee219c 61c561ff     . r.r.j`.!...a.a
 80080be:	4183019c 61e6a2ac 80e6a0e6 80e680e6     ...A...a........
 80080ce:	80e680e6 80e680e6 80e680e6 80e680e6     ................
 80080de:	01d6a0e6 61dec0cd ffff7bef ffffffff     .......a.{......
 80080ee:	ffffffff ffffffff ffffffff ffffffff     ................
 80080fe:	ffffffff ffffffff ffffffff ffffffff     ................
 800810e:	ffffffff ffffffff ffffffff ffffffff     ................
 800811e:	ffffffff ffffffff 108cffff 7ad6aa5a     ............Z..z
 800812e:	ffffffff ffffffff ffffffff ffffffff     ................
 800813e:	ffffffff ffffffff ffffffff ffffffff     ................
 800814e:	027b36c6 e0592062 a06ac049 207b6083     .6{.b Y.I.j..`{ 
 800815e:	a06aa06a 41a44183 e1d541bd 01f7a1e6     j.j..A.A.A......
 800816e:	20f701f7 a0eee0f6 80e680e6 80e680e6     ... ............
 800817e:	a1ace0f6 40ff82c5 80e660e6 40ff60e6     .......@.`...`.@
 800818e:	806a21bd e1726083 e072c16a e072608b     .!j..`r.j.r..`r.
 800819e:	4083007b 81aca072 41bda1ff 207b6162     {..@r......Aba{ 
 80081ae:	e072e072 007b6083 027b4183 60834083     r.r..`{..A{..@.`
 80081be:	a16ae172 c2ac806a 41e6c2ff 205ac193     r.j.j......A..Z 
 80081ce:	c1ac2062 c0eea1ee 80e660e6 80e680e6     b .......`......
 80081de:	80e680e6 80e680e6 80e680e6 80e680e6     ................
 80081ee:	a0e680e6 65bda0cd ffffbdf7 ffffffff     .......e........
 80081fe:	ffffffff ffffffff ffffffff ffffffff     ................
 800820e:	ffffffff ffffffff ffffffff ffffffff     ................
 800821e:	ffffffff ffffffff ffffffff ffffffff     ................
 800822e:	ffffffff ffffffff ffffffff ffffffff     ................
 800823e:	ffffffff ffffffff ffffffff ffffffff     ................
 800824e:	ffffffff ffffffff ffffffff 6c943be7     .............;.l
 800825e:	a072806a 0152415a 818be072 017bc072     j.r.ZAR.r...r.{.
 800826e:	61c541a4 01f741de e0f621f7 80e6a0e6     .A.a.A...!......
 800827e:	80e660e6 80e680e6 80e680e6 80e680e6     .`..............
 800828e:	c2cda0ee a0ee41de 80e680e6 a0ee60e6     .....A.......`..
 800829e:	a18be1f6 207ba072 0173e172 017b207b     ....r.{ r.s.{ {.
 80082ae:	6083e172 6183e07a 80c501f7 007b4162     r..`z..a....bA{.
 80082be:	c172017b 60836083 e151c072 21836183     {.r..`.`r.Q..a.!
 80082ce:	4183816a 22de23b5 c07261a4 207b4062     j..A.#.".ar.b@{ 
 80082de:	61ff02d6 60e6a0e6 80e680e6 80e680e6     ...a...`........
 80082ee:	80e680e6 80e680e6 80e680e6 80e680e6     ................
 80082fe:	a0e680e6 48bd40de ffffbff7 ffffffff     .....@.H........
 800830e:	ffffffff ffffffff ffffffff ffffffff     ................
 800831e:	ffffffff ffffffff ffffffff ffffffff     ................
 800832e:	ffffffff ffffffff ffffffff ffffffff     ................
 800833e:	ffffffff ffffffff ffffffff ffffffff     ................
 800834e:	ffffffff ffffffff ffffffff ffffffff     ................
 800835e:	ffffffff fffffeff 72b5ffff a072a06a     ...........rj.r.
 800836e:	4139007b 6183c149 606a608b 22dec193     {.9AI..a.`j`..."
 800837e:	00f721f7 80e6c0ee 80e660e6 80e680e6     .!.......`......
 800838e:	60e680e6 80e680e6 80e680e6 80e680e6     ...`............
 800839e:	61c5c0ee 20f741bd 60e660e6 60e680e6     ...a.A. .`.`...`
 80083ae:	e1d500f7 207ba072 a06ae172 4083e172     ....r.{ r.j.r..@
 80083be:	207be172 a06a4083 01d6c1d5 e0726162     r.{ .@j.....bar.
 80083ce:	e0722083 40834083 8141207b 017b8062     . r..@.@{ A.b.{.
 80083de:	a2a4e172 e07a02b5 e072806a 02d6418b     r.....z.j.r..A..
 80083ee:	40dee0ee 80e680e6 80e660e6 80e680e6     ...@.....`......
 80083fe:	80e680e6 80e680e6 80e680e6 80e680e6     ................
 800840e:	60e680e6 24d6a0ee ffff7eef ffffffff     ...`...$.~......
 800841e:	ffffffff ffffffff ffffffff ffffffff     ................
 800842e:	ffffffff ffffffff ffffffff ffffffff     ................
 800843e:	ffffffff ffffffff ffffffff ffffffff     ................
 800844e:	ffffffff ffffffff ffffffff ffffffff     ................
 800845e:	ffffffff ffffffff ffffffff ffffffff     ................
 800846e:	ffffffff fff7ffff e0596c94 8183007b     .........lY.{...
 800847e:	a1498139 4083818b 019c806a 20f7c2ee     9.I....@j...... 
 800848e:	60e680e6 80e680e6 80e680e6 60e660e6     ...`.........`.`
 800849e:	80e660e6 80e680e6 80e680e6 80e680e6     .`..............
 80084ae:	20dea0ee 21d6818b 60e600f7 80e680e6     ... ...!...`....
 80084be:	41f780e6 806aa2ac e172407b 207bc16a     ...A..j.{@r.j.{ 
 80084ce:	e172e17a a06a6083 01d680ac c072a06a     z.r..`j.....j.r.
 80084de:	c16a4083 4083207b e1496083 a16a6141     .@j.{ .@.`I.Aaj.
 80084ee:	418b417b 007ba072 207b4083 c193a18b     {A.Ar.{..@{ ....
 80084fe:	01d62183 80e6e0ee 80e660e6 80e680e6     .!.......`......
 800850e:	80e680e6 80e680e6 80e680e6 80e680e6     ................
 800851e:	60e680e6 20d680e6 ffff7bef ffffffff     ...`... .{......
 800852e:	ffffffff ffffffff ffffffff ffffffff     ................
 800853e:	ffffffff ffffffff ffffffff ffffffff     ................
 800854e:	ffffffff ffffffff ffffffff ffffffff     ................
 800855e:	ffffffff ffffffff ffffffff ffffffff     ................
 800856e:	ffffffff ffffffff ffffffff ffffffff     ................
 800857e:	ffffffff 2473fade 4083406a c149808b     ......s$j@.@..I.
 800858e:	608b8141 a06a4083 21f7c1ac 60e6c1ee     A..`.@j....!...`
 800859e:	80e680e6 80e680e6 80e680e6 80e680e6     ................
 80085ae:	80e680e6 80e680e6 80e680e6 80e680e6     ................
 80085be:	20f760e6 217b81ac a0eec1ee 80e680e6     .`. ..{!........
 80085ce:	c0e660e6 e19301ef 017bc072 e172e172     .`......r.{.r.r.
 80085de:	c172007b 007b207b e1ac808b 0073017b     {.r.{ {.....{.s.
 80085ee:	c1724083 4083e07a 215a6083 e151e128     .@r.z..@.`Z!(.Q.
 80085fe:	20834183 20832083 40832083 6062207b     .A. . . . .@{ b`
 800860e:	e1eee193 80e680e6 80e680e6 80e680e6     ................
 800861e:	80e680e6 80e680e6 80e680e6 80e680e6     ................
 800862e:	60e680e6 00de80e6 ffffd4de ffffffff     ...`............
 800863e:	ffffffff ffffffff ffffffff ffffffff     ................
 800864e:	ffffffff ffffffff ffffffff ffffffff     ................
 800865e:	ffffffff ffffffff ffffffff ffffffff     ................
 800866e:	ffffffff ffffffff ffffffff ffffffff     ................
 800867e:	ffffffff ffffffff ffffffff ffffffff     ................
 800868e:	ffffffff c0598b9c 808b4083 6139a16a     ......Y..@..j.9a
 800869e:	808b2083 219c806a c0ee41ff 80e660e6     . ..j..!.A...`..
 80086ae:	60e680e6 80e680e6 80e680e6 80e680e6     ...`............
 80086be:	80e680e6 80e680e6 80e680e6 80e680e6     ................
 80086ce:	a0ee80e6 c072c1ee 61ff81a4 80e680e6     ......r....a....
 80086de:	60e680e6 c1cd20f7 207b806a c16ae172     ...`. ..j.{ r.j.
 80086ee:	0173207b 6083e072 239c207b 217ba26a     { s.r..`{ .#j.{!
 80086fe:	01734083 4083007b 6162808b c16a0129     .@s.{..@..ba).j.
 800870e:	407b808b 2083207b 40832083 806a4083     ..{@{ . . .@.@j.
 800871e:	20f7a0ac 80e660e6 80e680e6 80e680e6     ... .`..........
 800872e:	80e680e6 80e680e6 80e680e6 80e680e6     ................
 800873e:	80e680e6 60e660e6 ffff07ce ffffffff     .....`.`........
 800874e:	ffffffff ffffffff ffffffff ffffffff     ................
 800875e:	ffffffff ffffffff ffffffff ffffffff     ................
 800876e:	ffffffff ffffffff ffffffff ffffffff     ................
 800877e:	ffffffff ffffffff ffffffff ffffffff     ................
 800878e:	ffffffff ffffffff ffffffff ffffffff     ................
 800879e:	9ef7ffff e07a427b 418b4083 6062a149     ....{Bz..@.AI.b`
 80087ae:	c072a18b a2ee818b 60e6e0ee 80e680e6     ..r........`....
 80087be:	80e680e6 80e680e6 80e680e6 80e680e6     ................
 80087ce:	80e680e6 80e680e6 80e680e6 80e680e6     ................
 80087de:	60e660e6 41bd21ff c1cd4162 60e621ff     .`.`.!.AbA...!.`
 80087ee:	80e680e6 01f780e6 a07281a4 c172017b     ..........r.{.r.
 80087fe:	217be17a 4083e172 e393207b 415a0252     z.{!r..@{ ..R.ZA
 800880e:	207b608b 4083007b 8062808b 618b8141     .`{ {..@..b.A..a
 800881e:	40834083 20834083 20832083 a0722083     .@.@.@. . . . r.
 800882e:	00f741bd 80e680e6 80e680e6 80e680e6     .A..............
 800883e:	80e680e6 80e680e6 80e680e6 80e680e6     ................
 800884e:	80e680e6 a0ee60e6 d7dee0cd ffffffff     .....`..........
 800885e:	ffffffff ffffffff ffffffff ffffffff     ................
 800886e:	ffffffff ffffffff ffffffff ffffffff     ................
 800887e:	ffffffff ffffffff ffffffff ffffffff     ................
 800888e:	ffffffff ffffffff ffffffff ffffffff     ................
 800889e:	ffffffff ffffffff ffffffff ffffffff     ................
 80088ae:	15c6ffff 40834062 007b4083 017ba149     ....b@.@.@{.I.{.
 80088be:	806a6083 40ff01b5 80e660e6 80e680e6     .`j....@.`......
 80088ce:	80e680e6 80e680e6 80e680e6 80e680e6     ................
 80088de:	80e680e6 80e680e6 80e680e6 80e680e6     ................
 80088ee:	80e660e6 21f780ee a051c28b 60ffa1cd     .`.....!..Q....`
 80088fe:	60e680e6 c0ee60e6 a18b01ef 017bc072     ...`.`......r.{.
 800890e:	007b816a 017b017b 217b408b 6041c141     j.{.{.{..@{!A.A`
 800891e:	4083207b 4083c172 0152818b 808b205a     { .@r..@..R.Z ..
 800892e:	00832083 4083207b 2083207b 207b007b     . ..{ .@{ . {.{ 
 800893e:	c0ee01de 80e680e6 80e680e6 80e680e6     ................
 800894e:	80e680e6 80e680e6 80e680e6 80e680e6     ................
 800895e:	80e680e6 80e680e6 a3c580e6 ffff7eef     .............~..
 800896e:	ffffffff ffffffff ffffffff ffffffff     ................
 800897e:	ffffffff ffffffff ffffffff ffffffff     ................
 800898e:	ffffffff ffffffff ffffffff ffffffff     ................
 800899e:	ffffffff ffffffff ffffffff ffffffff     ................
 80089ae:	ffffffff ffffffff ffffffff ffffffff     ................
 80089be:	0eadffff 20836062 20834083 207bc172     ....b`. .@. r.{ 
 80089ce:	017b207b e0ee01d6 80e680e6 80e680e6     { {.............
 80089de:	80e680e6 80e680e6 80e680e6 80e680e6     ................
 80089ee:	80e680e6 80e680e6 80e680e6 80e680e6     ................
 80089fe:	80e680e6 c0ee60e6 e193c1ee 01b5816a     .....`......j...
 8008a0e:	c0ee21f7 60e660e6 e1cd20f7 007ba072     .!...`.`. ..r.{.
 8008a1e:	c172e172 c172e07a 207b608b 2131c149     r.r.z.r..`{ I.1!
 8008a2e:	a08b215a 207bc072 014a4083 4083e07a     Z!..r.{ .@J.z..@
 8008a3e:	c1724083 4083217b 2083407b c193c072     .@r.{!.@{@. r...
 8008a4e:	a0e6c1ee 80e680e6 80e680e6 80e680e6     ................
 8008a5e:	80e680e6 80e680e6 80e680e6 80e680e6     ................
 8008a6e:	80e680e6 80e680e6 00d680ee ffff4fd6     .............O..
 8008a7e:	ffffffff ffffffff ffffffff ffffffff     ................
 8008a8e:	ffffffff ffffffff ffffffff ffffffff     ................
 8008a9e:	ffffffff ffffffff ffffffff ffffffff     ................
 8008aae:	ffffffff ffffffff ffffffff ffffffff     ................
 8008abe:	ffffffff ffffffff ffffffff ffffffff     ................
 8008ace:	c68bffff 2083a072 207b207b a18b02b5     ....r.. { { ....
 8008ade:	019ca06a 80e6e0ee 80e680e6 80e680e6     j...............
 8008aee:	80e680e6 80e680e6 80e680e6 80e680e6     ................
 8008afe:	80e680e6 80e680e6 80e680e6 80e680e6     ................
 8008b0e:	80e680e6 60e680e6 61ffa0ee a16a82c5     .......`...a..j.
 8008b1e:	e1f6a18b 60e6e0ee 21f780e6 a06a81ac     .......`...!..j.
 8008b2e:	a16ae07a 007b0173 6183c172 8139e051     z.j.s.{.r..aQ.9.
 8008b3e:	c1724139 017b417b 415aa16a 608b808b     9Ar.{A{.j.ZA...`
 8008b4e:	8162a172 20838083 20832083 c1ac806a     r.b.... . . j...
 8008b5e:	80e620f7 80e680e6 80e680e6 80e680e6     . ..............
 8008b6e:	80e680e6 80e680e6 80e680e6 80e680e6     ................
 8008b7e:	80e680e6 80e660e6 a0ee80de 1adfc0cd     .....`..........
 8008b8e:	ffffffff ffffffff ffffffff ffffffff     ................
 8008b9e:	ffffffff ffffffff ffffffff ffffffff     ................
 8008bae:	ffffffff ffffffff ffffffff ffffffff     ................
 8008bbe:	ffffffff ffffffff ffffffff ffffffff     ................
 8008bce:	ffffffff ffffffff ffffffff ffffffff     ................
 8008bde:	01737cef 2083007b 4083007b e19362e6     .|s.{.. {..@.b..
 8008bee:	81a42062 60e601f7 80e680e6 80e680e6     b .....`........
 8008bfe:	80e680e6 80e680e6 80e680e6 80e680e6     ................
 8008c0e:	80e680e6 80e680e6 80e680e6 80e680e6     ................
 8008c1e:	80e680e6 80e680e6 80e660e6 a2e620f7     .........`... ..
 8008c2e:	6183a28b 00ff80e6 c0ee60de 818bc1ee     ...a.....`......
 8008c3e:	0173a06a 207ba16a 017b217b 4139615a     j.s.j.{ {!{.Za9A
 8008c4e:	a1498139 01734183 017be172 808b6083     9.I..As.r.{..`..
 8008c5e:	80620152 2083808b 207b2083 81c5c072     R.b.... . { r...
 8008c6e:	80e600f7 80e680e6 80e680e6 80e680e6     ................
 8008c7e:	80e680e6 80e680e6 80e680e6 80e680e6     ................
 8008c8e:	80e680e6 80e680e6 80e680e6 c6c560e6     .............`..
 8008c9e:	ffffbfef ffffffff ffffffff ffffffff     ................
 8008cae:	ffffffff ffffffff ffffffff ffffffff     ................
 8008cbe:	ffffffff ffffffff ffffffff ffffffff     ................
 8008cce:	ffffffff ffffffff ffffffff ffffffff     ................
 8008cde:	ffffffff ffffffff ffffffff ffffffff     ................
 8008cee:	a06a77ce 407b2083 009ca072 e1b481ff     .wj.. {@r.......
 8008cfe:	a1ace051 80e600f7 80e680e6 80e680e6     Q...............
 8008d0e:	80e680e6 80e680e6 80e680e6 80e680e6     ................
 8008d1e:	80e680e6 80e680e6 80e680e6 80e680e6     ................
 8008d2e:	80e680e6 80e680e6 80e680e6 c0ee60e6     .............`..
 8008d3e:	c2b421f7 61bd6283 60e640ff 41dee0f6     .!...b.a.@.`...A
 8008d4e:	e072207b 2152017b 608b017b e149e172     { r.{.R!{..`r.I.
 8008d5e:	61398139 40838062 6083c172 a16a608b     9.9ab..@r..`.`j.
 8008d6e:	4083c149 20834083 00732083 41e66183     I..@.@. . s..a.A
 8008d7e:	80e6c0ee 80e680e6 80e680e6 80e680e6     ................
 8008d8e:	80e680e6 80e680e6 80e680e6 80e680e6     ................
 8008d9e:	80e680e6 80e680e6 80e680e6 00dea0ee     ................
 8008dae:	ffff6ed6 ffffffff ffffffff ffffffff     .n..............
 8008dbe:	ffffffff ffffffff ffffffff ffffffff     ................
 8008dce:	ffffffff ffffffff ffffffff ffffffff     ................
 8008dde:	ffffffff ffffffff ffffffff ffffffff     ................
 8008dee:	ffffffff ffffffff ffffffff ffffffff     ................
 8008dfe:	4062f4bd 207b4083 01b5a06a a1e660ff     ..b@.@{ j....`..
 8008e0e:	808be16a 80e6e1ee 80e680e6 80e680e6     j...............
 8008e1e:	80e680e6 80e680e6 80e680e6 80e680e6     ................
 8008e2e:	80e680e6 80e680e6 80e680e6 80e680e6     ................
 8008e3e:	80e680e6 80e680e6 80e680e6 60e680e6     ...............`
 8008e4e:	40ff80e6 828301ce 01f7c1ac 60ffe0ee     ...@...........`
 8008e5e:	406a01b5 816a808b 61836141 017ba08b     ..j@..j.Aa.a..{.
 8008e6e:	2131c149 217b4139 c072e172 a141808b     I.1!9A{!r.r...A.
 8008e7e:	a08b215a 407b407b a06a2083 e1f641a4     Z!..{@{@. j..A..
 8008e8e:	80e680e6 80e660e6 00f7c0ee e0ee00f7     .....`..........
 8008e9e:	a0ee80e6 60e6a0e6 80e680e6 80e680e6     .......`........
 8008eae:	80e680e6 80e680e6 80e680e6 a0ee60e6     .............`..
 8008ebe:	3be7c0cd ffffffff ffffffff ffffffff     ...;............
 8008ece:	ffffffff ffffffff ffffffff ffffffff     ................
 8008ede:	ffffffff ffffffff ffffffff ffffffff     ................
 8008eee:	ffffffff ffffffff ffffffff ffffffff     ................
 8008efe:	ffffffff ffffffff ffffffff ffffffff     ................
 8008f0e:	806ad9de 207b2083 e2b4a06a 60ff61ff     ..j.. { j....a.`
 8008f1e:	2162e2b4 e0f6e1d5 80e680e6 80e680e6     ..b!............
 8008f2e:	60e680e6 80e680e6 80e680e6 80e680e6     ...`............
 8008f3e:	80e680e6 80e680e6 80e680e6 80e680e6     ................
 8008f4e:	80e680e6 80e680e6 80e680e6 80e680e6     ................
 8008f5e:	80de80e6 81e620f7 429c0294 60ff21de     ..... .....B.!.`
 8008f6e:	e19321f7 a18b806a c149014a a093818b     .!..j...J.I.....
 8008f7e:	215a6083 a1412131 2183e172 6141007b     .`Z!1!A.r..!{.Aa
 8008f8e:	608be172 2083407b a06a2083 20f701b5     r..`{@. . j.... 
 8008f9e:	60e660e6 21f7a0ee a1c561de e1d562bd     .`.`...!.a...b..
 8008fae:	41dea1e6 20f761e6 80e680e6 80e680e6     ...A.a. ........
 8008fbe:	80e680e6 80e680e6 80e680e6 80e680e6     ................
 8008fce:	e7c540de ffffbef7 ffffffff ffffffff     .@..............
 8008fde:	ffffffff ffffffff ffffffff ffffffff     ................
 8008fee:	ffffffff ffffffff ffffffff ffffffff     ................
 8008ffe:	ffffffff ffffffff ffffffff ffffffff     ................
 800900e:	ffffffff ffffffff ffffffff ffffffff     ................
 800901e:	4a94ffff 40834062 e07a007b 41ffe1b4     ...Jb@.@{.z....A
 800902e:	217b41ff 21ffe093 80e680e6 60e660e6     .A{!...!.....`.`
 800903e:	a0e680e6 80e680e6 80e680e6 61de80e6     ...............a
 800904e:	a1e641de 80e6a0ee 60e680e6 80e660e6     .A.........`.`..
 800905e:	80e680e6 60e660e6 80e680e6 80e680e6     .....`.`........
 800906e:	80e6a0e6 c0ee80e6 42bd21f7 0194217b     .........!.B{!..
 800907e:	a1ff01f7 c072c193 81418183 2183a141     ......r...A.A..!
 800908e:	c093c093 8141207b 81838149 c149205a     ....{ A.I...Z I.
 800909e:	20836083 2083207b c1722083 00f781c5     .`. { . . r.....
 80090ae:	20f760e6 a2ace2ee a16a217b 6062215a     .`. ....{!j.Z!b`
 80090be:	23b5c28b 81c582a4 c0ee21f7 80e660e6     ...#.....!...`..
 80090ce:	80e680e6 60e660e6 80e680e6 80e680e6     .....`.`........
 80090de:	c0cda0ee ffffb5d6 ffffffff ffffffff     ................
 80090ee:	ffffffff ffffffff ffffffff ffffffff     ................
 80090fe:	ffffffff ffffffff ffffffff ffffffff     ................
 800910e:	ffffffff ffffffff ffffffff ffffffff     ................
 800911e:	ffffffff ffffffff ffffffff ffffffff     ................
 800912e:	1be7ffff 007ba06a 00734083 81ac806a     ....j.{..@s.j...
 800913e:	01d6c1ff 21d66162 60e6e0f6 80e680e6     ....ba.!...`....
 800914e:	e1d541de e0f681e6 60e680e6 81e680e6     .A.........`....
 800915e:	82c5c1cd 60e601d6 a0eea0ee 80e680e6     .......`........
 800916e:	80e660e6 e0eec0ee 01f720f7 c1eee1f6     .`....... ......
 800917e:	a1e6a1e6 01f7c1f6 80ff00f7 027b22de     ............."{.
 800918e:	a1c5816a 218342de c16a608b a141e128     j....B.!.`j.(.A.
 800919e:	017bc172 a18b808b 21526162 61626139     r.{.....baR!9aba
 80091ae:	2083a08b 207b2083 217b007b c0ee21de     ... . { {.{!.!..
 80091be:	02d600f7 4062828b e17a2062 01b5219c     ......b@b z..!..
 80091ce:	82cde1b4 a26a23b5 e1f6c28b 80e620ff     .....#j...... ..
 80091de:	80e660e6 20f7e0f6 e0ee00f7 a0e6a0ee     .`..... ........
 80091ee:	c0cdc0ee fffff8de ffffffff ffffffff     ................
 80091fe:	ffffffff ffffffff ffffffff ffffffff     ................
 800920e:	ffffffff ffffffff ffffffff ffffffff     ................
 800921e:	ffffffff ffffffff ffffffff ffffffff     ................
 800922e:	ffffffff ffffffff ffffffff ffffffff     ................
 800923e:	ffffffff 2062eda4 40834083 a06a207b     ......b .@.@{ j.
 800924e:	e2eec193 c2aca2c5 a0e6e0f6 a0e660e6     .............`..
 800925e:	e1d560de 01b522bd 21f7a1e6 80e6a0e6     .`...".....!....
 800926e:	01d680e6 01d6e1cd e1cdc1cd e0ee60de     .............`..
 800927e:	e1ee20f7 a2cd41de 81ac01b5 009441a4     . ...A.......A..
 800928e:	c193c193 81a4019c 01d641bd c2ff61ff     .........A...a..
 800929e:	816222b5 c193808b 808b007b 4139a16a     ."b.....{...j.9A
 80092ae:	a1494039 415ae149 81418162 e1728141     9@I.I.ZAb.A.A.r.
 80092be:	407b608b 207b2083 219ca072 40ffe1ee     .`{@. { r..!...@
 80092ce:	816aa2c5 e07a2062 01d6a1ac 21f701f7     ..j.b z........!
 80092de:	e0ee01f7 01d6c1ee c26a8183 21ff41bd     ..........j..A.!
 80092ee:	01d6e0ee a1ac61a4 01d6a2cd c1ee61de     .....a.......a..
 80092fe:	09ce80e6 ffffdff7 ffffffff ffffffff     ................
 800930e:	ffffffff ffffffff ffffffff ffffffff     ................
 800931e:	ffffffff ffffffff ffffffff ffffffff     ................
 800932e:	ffffffff ffffffff ffffffff ffffffff     ................
 800933e:	ffffffff ffffffff ffffffff ffffffff     ................
 800934e:	ffffffff c16a9def 4083a072 407b4083     ......j.r..@.@{@
 800935e:	618b6062 a1e661ff 61de62bd 80e6c0ee     b`.a.a...b.a....
 800936e:	c0ee80e6 a1ac41de a1ac818b 41ffc1ee     .....A.........A
 800937e:	a0e6c0ee 81e6a0e6 a1cd21d6 82c5c2cd     .........!......
 800938e:	818b42a4 c07a007b a06aa072 c072a06a     .B..{.z.r.j.j.r.
 800939e:	c072c072 c072c072 217bc072 00b5019c     r.r.r.r.r.{!....
 80093ae:	c3cd62de a06a217b 808b808b e172e09b     .b..{!j.......r.
 80093be:	41396039 60418141 41396141 2083e149     9`9AA.A`Aa9AI.. 
 80093ce:	407b4083 21832083 21bda06a 42dea0ff     .@{@. .!j..!...B
 80093de:	005ae17a e1d5217b 00f761ff 60e680e6     z.Z.{!...a.....`
 80093ee:	60e680e6 00f780e6 82a441ff 629cc151     ...`.....A..Q..b
 80093fe:	c1f6a1ff e17a22bd 217b2162 e193818b     ....."z.b!{!....
 800940e:	f9de808b ffffffff ffffffff ffffffff     ................
 800941e:	ffffffff ffffffff ffffffff ffffffff     ................
 800942e:	ffffffff ffffffff ffffffff ffffffff     ................
 800943e:	ffffffff ffffffff ffffffff ffffffff     ................
 800944e:	ffffffff ffffffff ffffffff ffffffff     ................
 800945e:	ffffffff 77ceffff 00836062 407b2083     .......wb`... {@
 800946e:	a06a407b a1e6818b a2c561de 81e6e1cd     {@j......a......
 800947e:	c0ee20ff 20ffc0e6 a18361c5 41a46183     . ..... .a...a.A
 800948e:	21f701d6 80e600f7 c0eea0e6 c2cda0e6     ...!............
 800949e:	e18b62a4 a1726183 c072806a 4083207b     .b...ar.j.r.{ .@
 80094ae:	20834083 c172007b 4083207b 806aa072     .@. {.r.{ .@r.j.
 80094be:	e093c072 a16ac193 6062415a 618be07a     r.....j.ZAb`z..a
 80094ce:	415a017b a149a149 4139c149 6083e151     {.ZAI.I.I.9AQ..`
 80094de:	20834083 007b2083 41de217b c19321f7     .@. . {.{!.A.!..
 80094ee:	e193005a 20f742de 60e680e6 80e680e6     Z....B. ...`....
 80094fe:	80e680e6 60e680e6 60ff80e6 816ae2d5     .......`...`..j.
 800950e:	e1eea28b a1ee80ff 606ac193 0062e072     ..........j`r.b.
 800951e:	ffffaa83 ffffffff ffffffff ffffffff     ................
 800952e:	ffffffff ffffffff ffffffff ffffffff     ................
 800953e:	ffffffff ffffffff ffffffff ffffffff     ................
 800954e:	ffffffff ffffffff ffffffff ffffffff     ................
 800955e:	ffffffff ffffffff ffffffff ffffffff     ................
 800956e:	ffffffff ffffffff 00622ead 207b4083     ..........b..@{ 
 800957e:	4083407b 4183606a 20f721f7 429c82c5     {@.@j`.A.!. ...B
 800958e:	01d681a4 21f7e1f6 41ff60ff 417b81c5     .......!.`.A..{A
 800959e:	a1934162 01f7c1cd a0e600f7 c0ee60e6     bA...........`..
 80095ae:	20f720ff c2cda1e6 818b82a4 806ac172     . . ........r.j.
 80095be:	e072e072 41392152 c16a6139 6083818b     r.r.R!9A9aj....`
 80095ce:	e07a2083 6083007b 6141a16a a1492131     . z.{..`j.Aa1!I.
 80095de:	81626162 6139c149 4131c149 808b415a     bab.I.9aI.1AZA..
 80095ee:	20834083 a06a4083 a0ff419c c05161c5     .@. .@j..A...aQ.
 80095fe:	41ff219c 60e600f7 80e660e6 80e680e6     .!.A...`.`......
 800960e:	80e680e6 80e680e6 60e660e6 a1e640ff     .........`.`.@..
 800961e:	6283615a 20f721ff 219c01f7 6062806a     Za.b.!. ...!j.b`
 800962e:	ffff6ebd ffffffff ffffffff ffffffff     .n..............
 800963e:	ffffffff ffffffff ffffffff ffffffff     ................
 800964e:	ffffffff ffffffff ffffffff ffffffff     ................
 800965e:	ffffffff ffffffff ffffffff ffffffff     ................
 800966e:	ffffffff ffffffff ffffffff ffffffff     ................
 800967e:	ffffffff ffffffff c2729def 4083c072     ..........r.r..@
 800968e:	207b2083 a06a407b e1f6e19b 01d640ff     . { {@j......@..
 800969e:	4283629c c1ac6183 81e601d6 a1ff41ff     .b.B.a.......A..
 80096ae:	217ba2c5 019c806a a1eea1cd e0f600f7     ..{!j...........
 80096be:	80e6a0e6 20f7a0ee c1ee41ff e2b4e1cd     ....... .A......
 80096ce:	818b219c c16a417b c1492152 017b6162     .!..{Aj.R!I.ba{.
 80096de:	4083207b 40836083 4183808b 6141215a     { .@.`.@...AZ!Aa
 80096ee:	40312131 a141a141 21318141 808ba16a     1!1@A.A.A.1!j...
 80096fe:	20832083 a072207b c1ff41c5 4183e193     . . { r..A.....A
 800970e:	c0eee1ee 80e680e6 80e680e6 80e680e6     ................
 800971e:	80e680e6 80e680e6 80e680e6 00f760de     .............`..
 800972e:	e172c2ee 41ff429c e2ee00f7 a18b4183     ..r..B.A.....A..
 800973e:	d4de60de ffffffff ffffffff ffffffff     .`..............
 800974e:	ffffffff ffffffff ffffffff ffffffff     ................
 800975e:	ffffffff ffffffff ffffffff ffffffff     ................
 800976e:	ffffffff ffffffff ffffffff ffffffff     ................
 800977e:	ffffffff ffffffff ffffffff ffffffff     ................
 800978e:	ffffffff ffffffff b9d6ffff 207b0052     ............R.{ 
 800979e:	40836083 20832083 6183a06a 80ff41de     .`.@. . j..a.A..
 80097ae:	21d621f7 c172c1ac 40832162 60ace19b     .!.!..r.b!.@...`
 80097be:	e3d5c1cd 406283a4 c193a06a c1cd61ac     ......b@j....a..
 80097ce:	e1eea1e6 e1f6e1f6 c1eec1ee c1eee1f6     ................
 80097de:	02b502d6 818b63a4 c1720173 c16a8162     .....c..s.r.b.j.
 80097ee:	c16ac172 e17ac172 608b007b 417ba093     r.j.r.z.{..`..{A
 80097fe:	0152a16a 81418141 61394131 6083017b     j.R.A.A.1A9a{..`
 800980e:	20832083 41830073 60e681e6 a1e6c2b4     . . s..A...`....
 800981e:	60e6c0ee 80e680e6 80e680e6 80e680e6     ...`............
 800982e:	80e680e6 80e680e6 80e680e6 60e680e6     ...............`
 800983e:	81e620f7 a2ac6162 00f700f7 a2cda1cd     . ..ba..........
 800984e:	a0cd00f7 ffffb7de ffffffff ffffffff     ................
 800985e:	ffffffff ffffffff ffffffff ffffffff     ................
 800986e:	ffffffff ffffffff ffffffff ffffffff     ................
 800987e:	ffffffff ffffffff ffffffff ffffffff     ................
 800988e:	ffffffff ffffffff ffffffff ffffffff     ................
 800989e:	ffffffff ffffffff ffffffff c051cea4     ..............Q.
 80098ae:	e17a0173 808b207b a072808b 21de417b     s.z.{ ....r.{A.!
 80098be:	e0f640ff 82e640ff c172a2ac 205ae051     .@...@....r.Q.Z 
 80098ce:	2083806a 417bc193 a06a816a e07aa072     j.. ..{Aj.j.r.z.
 80098de:	219cc193 61a441a4 c193219c 2083818b     ...!.A.a.!..... 
 80098ee:	407b207b 40834083 007b007b 0073017b     { {@.@.@{.{.{.s.
 80098fe:	a16ae172 81628162 a16aa26a 207bc172     r.j.b.b.j.j.r.{ 
 800990e:	61836083 a16a0173 225a415a 40834183     .`.as.j.ZAZ".A.@
 800991e:	2083407b e093a072 21de00f7 c0ee81de     {@. r......!....
 800992e:	80e660e6 80e680e6 80e680e6 80e680e6     .`..............
 800993e:	80e680e6 80e680e6 80e680e6 80e680e6     ................
 800994e:	40ff60e6 416241c5 00f741de 20d601d6     .`.@.AbA.A..... 
 800995e:	80eea0ee 7eefa1c5 ffffffff ffffffff     .......~........
 800996e:	ffffffff ffffffff ffffffff ffffffff     ................
 800997e:	ffffffff ffffffff ffffffff ffffffff     ................
 800998e:	ffffffff ffffffff ffffffff ffffffff     ................
 800999e:	ffffffff ffffffff ffffffff ffffffff     ................
 80099ae:	ffffffff ffffffff ffffffff 0273ffff     ..............s.
 80099be:	e17a606a 615ac16a 4183c172 017b007b     j`z.j.Zar..A{.{.
 80099ce:	e1ee41bd 40ff01f7 a2eee1ff 219ce1b4     .A.....@.......!
 80099de:	806a017b c0726062 a06ac072 007be072     {.j.b`r.r.j.r.{.
 80099ee:	a06ae07a a06ac06a c072a072 007be072     z.j.j.j.r.r.r.{.
 80099fe:	207b007b 40834083 808b4083 808ba093     {.{ .@.@.@......
 8009a0e:	20834083 007b207b c1720173 6162a16a     .@. { {.s.r.j.ba
 8009a1e:	a26a6162 4183017b c16a027b 407b4083     baj.{..A{.j..@{@
 8009a2e:	20832083 21bde072 80e600f7 60e6a0e6     . . r..!.......`
 8009a3e:	80e680e6 80e680e6 80e680e6 80e680e6     ................
 8009a4e:	80e680e6 80e680e6 80e680e6 60e680e6     ...............`
 8009a5e:	80e680e6 e19321f7 61ff419c e1cdc1d5     .....!...A.a....
 8009a6e:	a0e6a0ee 6ed620de ffffffff ffffffff     ..... .n........
 8009a7e:	ffffffff ffffffff ffffffff ffffffff     ................
 8009a8e:	ffffffff ffffffff ffffffff ffffffff     ................
 8009a9e:	ffffffff ffffffff ffffffff ffffffff     ................
 8009aae:	ffffffff ffffffff ffffffff ffffffff     ................
 8009abe:	ffffffff ffffffff ffffffff d4bdffff     ................
 8009ace:	808b2062 61412183 c1490129 e172816a     b ...!Aa).I.j.r.
 8009ade:	e193806a 41c502b5 21dea0cd 21f702f7     j......A...!...!
 8009aee:	c2cd62de a1ac23bd 019441a4 c0722183     .b...#...A...!r.
 8009afe:	40834083 2083207b 40832083 40834083     .@.@{ . . .@.@.@
 8009b0e:	207b4083 e1720173 c172017b 8162615a     .@{ s.r.{.r.Zab.
 8009b1e:	a072a072 806aa06a 606a6062 806a806a     r.r.j.j.b`j`j.j.
 8009b2e:	406a606a 40624062 a16ae051 2083608b     j`j@b@b@Q.j..`. 
 8009b3e:	40832083 e1d5a16a 60e6e0f6 80e680e6     . .@j......`....
 8009b4e:	80e680e6 80e680e6 80e680e6 80e680e6     ................
 8009b5e:	80e680e6 80e680e6 80e680e6 80e680e6     ................
 8009b6e:	60e680e6 41dee0ee 21d6e272 e1cd41de     ...`...Ar..!.A..
 8009b7e:	80dea0ee a0cda0ee fffff9de ffffffff     ................
 8009b8e:	ffffffff ffffffff ffffffff ffffffff     ................
 8009b9e:	ffffffff ffffffff ffffffff ffffffff     ................
 8009bae:	ffffffff ffffffff ffffffff ffffffff     ................
 8009bbe:	ffffffff ffffffff ffffffff ffffffff     ................
 8009bce:	ffffffff ffffffff ffffffff ffffffff     ................
 8009bde:	606ae88b a16aa08b 41312131 615a4039     ..j`..j.1!1A9@Za
 8009bee:	a072217b c072806a 0173e072 c0936283     {!r.j.r.r.s..b..
 8009bfe:	23bd80ac e2cd83c5 43bda2cd 639422b5     ...#.......C.".c
 8009c0e:	e07ae16a 808b608b e0724083 007b017b     j.z..`...@r.{.{.
 8009c1e:	c172e172 217bc172 a049217b 40188020     r.r.r.{!{!I. ..@
 8009c2e:	82418020 2873655a edac4c94 48946a9c      .A.Zes(.L...j.H
 8009c3e:	07942794 07940794 e1728683 40834083     .'........r..@.@
 8009c4e:	61626083 41bd2139 80e620f7 80e680e6     .`ba9!.A. ......
 8009c5e:	80e680e6 80e680e6 80e680e6 80e680e6     ................
 8009c6e:	80e680e6 80e680e6 80e680e6 80e680e6     ................
 8009c7e:	80e680e6 01f780e6 419c6183 e1d5a1e6     .........a.A....
 8009c8e:	80e6a0ee 40de80e6 dff7e7cd ffffffff     .......@........
 8009c9e:	ffffffff ffffffff ffffffff ffffffff     ................
 8009cae:	ffffffff ffffffff ffffffff ffffffff     ................
 8009cbe:	ffffffff ffffffff ffffffff ffffffff     ................
 8009cce:	ffffffff ffffffff ffffffff ffffffff     ................
 8009cde:	ffffffff ffffffff ffffffff ffffffff     ................
 8009cee:	e1727def 4083e07a 4131e149 82418139     .}r.z..@I.1A9.A.
 8009cfe:	417b215a 4083818b 207b007b c072e07a     Z!{A...@{.{ z.r.
 8009d0e:	4062806a 0152205a c149e149 c241a041     j.b@Z R.I.I.A.A.
 8009d1e:	4162a241 c16a4183 e1726162 217b017b     A.bA.Aj.bar.{.{!
 8009d2e:	2083207b e07a808b a020a028 cc836552     { . ..z.(. .Re..
 8009d3e:	1bdf95b5 ffffdff7 ffffffff ffffffff     ................
 8009d4e:	ffffffff ffffffff e06afbde 4083007b     ..........j.{..@
 8009d5e:	c1494183 81acc028 80e640ff 80e680e6     .AI.(....@......
 8009d6e:	80e680e6 80e680e6 80e680e6 80e680e6     ................
 8009d7e:	80e680e6 80e680e6 80e680e6 80e680e6     ................
 8009d8e:	80e680e6 01ff80e6 017ba1ac 01d602d6     ..........{.....
 8009d9e:	80e6c0ee a0ee60e6 b4d6c0d5 ffffffff     .....`..........
 8009dae:	ffffffff ffffffff ffffffff ffffffff     ................
 8009dbe:	ffffffff ffffffff ffffffff ffffffff     ................
 8009dce:	ffffffff ffffffff ffffffff ffffffff     ................
 8009dde:	ffffffff ffffffff ffffffff ffffffff     ................
 8009dee:	ffffffff ffffffff ffffffff ffffffff     ................
 8009dfe:	91b5ffff 8093e059 81410173 81416139     ....Y...s.A.9aA.
 8009e0e:	a1416139 808bc172 4083808b 21834083     9aA.r......@.@.!
 8009e1e:	8041415a 21314139 20310131 215a8141     ZAA.9A1!1.1 A.Z!
 8009e2e:	808b007b 6139e272 a08b816a 40834083     {...r.9aj....@.@
 8009e3e:	606ae07a 6362806a f7bd8d7b ffffffff     z.j`j.bc{.......
 8009e4e:	ffffffff ffffffff ffffffff ffffffff     ................
 8009e5e:	ffffffff ffffffff 806a98d6 40832083     ..........j.. .@
 8009e6e:	01526083 e193e128 80e600f7 80e680e6     .`R.(...........
 8009e7e:	80e680e6 80e680e6 80e680e6 80e680e6     ................
 8009e8e:	80e680e6 80e680e6 80e680e6 80e680e6     ................
 8009e9e:	80e680e6 01f780e6 e07240bd 41de62bd     .........@r..b.A
 8009eae:	80e6a0ee 80ee60e6 4dce00d6 ffffffff     .....`.....M....
 8009ebe:	ffffffff ffffffff ffffffff ffffffff     ................
 8009ece:	ffffffff ffffffff ffffffff ffffffff     ................
 8009ede:	ffffffff ffffffff ffffffff ffffffff     ................
 8009eee:	ffffffff ffffffff ffffffff ffffffff     ................
 8009efe:	ffffffff ffffffff ffffffff ffffffff     ................
 8009f0e:	bff7ffff 20626583 a06a608b 60394039     .....eb .`j.9@9`
 8009f1e:	6139c149 01522131 608ba172 2083808b     I.9a1!R.r..`... 
 8009f2e:	217b4183 e1518162 c06a415a 808b2183     .A{!b.Q.ZAj..!..
 8009f3e:	017bc093 c1498141 4083608b 4062c072     ..{.A.I..`.@r.b@
 8009f4e:	0ead0273 5deff5c5 ffffffff ffffffff     s......]........
 8009f5e:	ffffffff ffffffff ffffffff ffffffff     ................
 8009f6e:	ffffffff ffffffff 806a35ce 40832083     .........5j.. .@
 8009f7e:	2152608b 6183e128 a0e6e1f6 80e680e6     .`R!(..a........
 8009f8e:	80e660e6 80e680e6 80e680e6 60e660e6     .`...........`.`
 8009f9e:	80e680e6 80e680e6 80e680e6 80e680e6     ................
 8009fae:	80e680e6 00f780e6 806a81cd 62de61a4     ..........j..a.b
 8009fbe:	80e6a0ee 60e680e6 5befa3c5 ffffffff     .......`...[....
 8009fce:	ffffffff ffffffff ffffffff ffffffff     ................
 8009fde:	ffffffff ffffffff ffffffff ffffffff     ................
 8009fee:	ffffffff ffffffff ffffffff ffffffff     ................
 8009ffe:	ffffffff ffffffff ffffffff ffffffff     ................
 800a00e:	ffffffff ffffffff ffffffff ffffffff     ................
 800a01e:	ffffffff 457b5cef 8283a072 e030625a     .....\{Er...Zb0.
 800a02e:	a049a028 2131a141 01524139 808b0173     (.I.A.1!9AR.s...
 800a03e:	2183608b 618b4183 a093a093 c093808b     .`.!.A.a........
 800a04e:	a141017b a16a2031 e07a009c 51b5027b     {.A.1 j...z.{..Q
 800a05e:	ffff5de7 ffffffff ffffffff ffffffff     .]..............
 800a06e:	ffffffff ffffffff ffffffff ffffffff     ................
 800a07e:	ffffffff ffffffff 606a14c6 207b2083     ..........j`. { 
 800a08e:	a16a818b a16ac028 c0eec1ee 80e661e6     ..j.(.j......a..
 800a09e:	60e680e6 80e680e6 80e680e6 80e680e6     ...`............
 800a0ae:	a0eea0e6 a0e6a0ee 80e680e6 80e680e6     ................
 800a0be:	80e680e6 00f780e6 606a81cd 62dec193     ..........j`...b
 800a0ce:	60e6a0ee c0cda0ee fffff9de ffffffff     ...`............
 800a0de:	ffffffff ffffffff ffffffff ffffffff     ................
 800a0ee:	ffffffff ffffffff ffffffff ffffffff     ................
 800a0fe:	ffffffff ffffffff ffffffff ffffffff     ................
 800a10e:	ffffffff ffffffff ffffffff ffffffff     ................
 800a11e:	ffffffff ffffffff ffffffff ffffffff     ................
 800a12e:	ffffffff ffffffff 5ceffbde 58ce7cef     ...........\.|.X
 800a13e:	40398b73 e151c151 8139a141 215aa141     s.9@Q.Q.A.9.A.Z!
 800a14e:	a16a6162 017b0073 017be172 815a4083     baj.s.{.r.{..@Z.
 800a15e:	41390229 608be051 c95a205a ffff7def     ).9AQ..`Z Z..}..
 800a16e:	ffffffff ffffffff ffffffff ffffffff     ................
 800a17e:	ffffffff ffffffff ffffffff ffffffff     ................
 800a18e:	ffffffff ffffffff 606256ce e07a2083     .........Vb`. z.
 800a19e:	e28b41a4 c151a120 61ffe1d5 c0eec0ee     .A.. .Q....a....
 800a1ae:	00f7e0ee 00f700f7 e1f6e1f6 c1eee1ee     ................
 800a1be:	81e6a1e6 a1ee61e6 60e6e1f6 80e660e6     .....a.....`.`..
 800a1ce:	80e680e6 00f780e6 a06a61c5 01ce217b     .........aj.{!..
 800a1de:	80eee0ee d3de60e6 ffffffff ffffffff     .....`..........
 800a1ee:	ffffffff ffffffff ffffffff ffffffff     ................
 800a1fe:	ffffffff ffffffff ffffffff ffffffff     ................
 800a20e:	ffffffff ffffffff ffffffff ffffffff     ................
 800a21e:	ffffffff ffffffff ffffffff ffffffff     ................
 800a22e:	ffffffff ffffffff ffffffff ffffffff     ................
 800a23e:	ffffffff ffffffff ffffffff ffffffff     ................
 800a24e:	74adffff 4131e120 8141a141 a141a249     ...t .1AA.A.I.A.
 800a25e:	a1498041 8149a149 e051c149 26002329     A.I.I.I.I.Q.)#.&
 800a26e:	85084700 83310321 357c0000 ffffffff     .G..!.1...|5....
 800a27e:	ffffffff ffffffff ffffffff ffffffff     ................
 800a28e:	ffffffff ffffffff ffffffff ffffffff     ................
 800a29e:	ffffffff ffffffff 437bbef7 c06ac072     ..........{Cr.j.
 800a2ae:	e2cde1bc 81410129 e2d5818b 41dea0e6     ....).A........A
 800a2be:	82c5e1d5 e1b421bd 81a4a1ac 019c41a4     .....!.......A..
 800a2ce:	a18be193 818ba18b e0ee21bd 80e680e6     .........!......
 800a2de:	80e680e6 00f780e6 a07241bd a1c5c172     .........Ar.r...
 800a2ee:	00f7e0f6 39c62094 ffffffff ffffffff     ..... .9........
 800a2fe:	ffffffff ffffffff ffffffff ffffffff     ................
 800a30e:	ffffffff ffffffff ffffffff ffffffff     ................
 800a31e:	ffffffff ffffffff ffffffff ffffffff     ................
 800a32e:	ffffffff ffffffff ffffffff ffffffff     ................
 800a33e:	ffffffff ffffffff ffffffff ffffffff     ................
 800a34e:	ffffffff ffffffff 1bdfffff 55ad9ad6     ...............U
 800a35e:	a731ae73 00000000 41082008 81396110     s.1...... .A.a9.
 800a36e:	e1490152 e051e049 c320c049 87002600     R.I.I.Q.I. ..&..
 800a37e:	8700a700 27004600 e9310400 ffffdef7     .....F.'..1.....
 800a38e:	ffffffff ffffffff ffffffff ffffffff     ................
 800a39e:	ffffffff ffffffff ffffffff ffffffff     ................
 800a3ae:	ffffffff ffffffff 92bdffff c072005a     ............Z.r.
 800a3be:	c2ff81ac c1288162 007b0173 6083818b     ....b.(.s.{....`
 800a3ce:	c072207b a072a072 a072a072 a072a072     { r.r.r.r.r.r.r.
 800a3de:	e072c072 806ae072 01d6a172 80e6e0ee     r.r.r.j.r.......
 800a3ee:	80e680e6 20f780e6 a06a21b5 c1cde072     ....... .!j.r...
 800a3fe:	21d640ff e88b4062 ffffffff ffffffff     .@.!b@..........
 800a40e:	ffffffff ffffffff ffffffff ffffffff     ................
 800a41e:	ffffffff ffffffff ffffffff ffffffff     ................
 800a42e:	ffffffff ffffffff ffffffff ffffffff     ................
 800a43e:	ffffffff ffffffff ffffffff ffffffff     ................
 800a44e:	ffffffff ffffffff ffffffff ffffffff     ................
 800a45e:	ffffffff d7bdffff 00000842 00000000     ........B.......
	...
 800a47a:	01000000 a1188118 2421e418 6700c510     ..........!$...g
 800a48a:	a6008700 86008708 a7008600 00008600     ................
 800a49a:	ffff75ad ffffffff ffffffff ffffffff     .u..............
 800a4aa:	ffffffff ffffffff ffffffff ffffffff     ................
 800a4ba:	ffffffff ffffffff ffffffff ffffffff     ................
 800a4ca:	606ac68b c1ee207b 6139a2e6 6083605a     ..j`{ ....9aZ`.`
 800a4da:	e072e07a 207b007b 407b207b 20832083     z.r.{.{ { {@. . 
 800a4ea:	20832083 20832083 40832083 e1b4806a     . . . . . .@j...
 800a4fa:	80e620f7 80e680e6 00f780e6 806ae1b4     . ............j.
 800a50a:	e1cd0073 81c560ff 4062c072 ffff15c6     s....`..r.b@....
 800a51a:	ffffffff ffffffff ffffffff ffffffff     ................
 800a52a:	ffffffff ffffffff ffffffff ffffffff     ................
 800a53a:	ffffffff ffffffff ffffffff ffffffff     ................
 800a54a:	ffffffff ffffffff ffffffff ffffffff     ................
 800a55a:	ffffffff ffffffff ffffffff ffffffff     ................
 800a56a:	ffffffff ffffffff 00006e6b 00000000     ........kn......
	...
 800a58a:	00000100 00000000 68004500 a6006700     .........E.h.g..
 800a59a:	a708a600 85008600 86008600 0000a608     ................
 800a5aa:	ffff3084 ffffffff ffffffff ffffffff     .0..............
 800a5ba:	ffffffff ffffffff ffffffff ffffffff     ................
 800a5ca:	ffffffff ffffffff ffffffff ffffffff     ................
 800a5da:	4062b8d6 019c806a e1ace1ff 608b2039     ..b@j.......9 .`
 800a5ea:	20832083 20832083 40832083 20834083     . . . . . .@.@. 
 800a5fa:	20832083 20832083 40832083 419ca06a     . . . . . .@j..A
 800a60a:	80e601f7 80e680e6 00f780e6 806aa1ac     ..............j.
 800a61a:	01d6007b a1c560ff 8072e172 ffff437b     {....`..r.r.{C..
 800a62a:	ffffffff ffffffff ffffffff ffffffff     ................
 800a63a:	ffffffff ffffffff ffffffff ffffffff     ................
 800a64a:	ffffffff ffffffff ffffffff ffffffff     ................
 800a65a:	ffffffff ffffffff ffffffff ffffffff     ................
 800a66a:	ffffffff ffffffff ffffffff ffffffff     ................
 800a67a:	ffffffff 2942bad6 00000000 00000000     ......B)........
	...
 800a6a2:	a8084300 a6088700 8600a600 86008500     .C..............
 800a6b2:	a7088708 00004400 ffffcf7b ffffffff     .....D..{.......
 800a6c2:	ffffffff ffffffff ffffffff ffffffff     ................
 800a6d2:	ffffffff ffffffff ffffffff ffffffff     ................
 800a6e2:	ffffffff ffffffff e68bffff a072606a     ............j`r.
 800a6f2:	a1ff21bd 60620273 407b6083 20832083     .!..s.b`.`{@. . 
 800a702:	20832083 20832083 20832083 20832083     . . . . . . . . 
 800a712:	207b2083 c18be072 a0ee81e6 80e680e6     . { r...........
 800a722:	e0f680e6 806a61a4 01d6207b 41bd60ff     .....aj.{ ...`.A
 800a732:	4083a06a 92bd4062 ffffffff ffffffff     j..@b@..........
 800a742:	ffffffff ffffffff ffffffff ffffffff     ................
 800a752:	ffffffff ffffffff ffffffff ffffffff     ................
 800a762:	ffffffff ffffffff ffffffff ffffffff     ................
 800a772:	ffffffff ffffffff ffffffff ffffffff     ................
 800a782:	ffffffff ffffffff b6b5ffff 00008310     ................
	...
 800a7b2:	86080100 a600a700 a6008600 a808c708     ................
 800a7c2:	22008508 00000000 ffffef7b ffffffff     ..."....{.......
 800a7d2:	ffffffff ffffffff ffffffff ffffffff     ................
 800a7e2:	ffffffff ffffffff ffffffff ffffffff     ................
 800a7f2:	ffffffff ffffffff 1be7ffff c072606a     ............j`r.
 800a802:	21de806a e17222f7 4083c072 2083407b     j..!."r.r..@{@. 
 800a812:	20832083 20832083 20832083 20832083     . . . . . . . . 
 800a822:	20832083 217b007b e0ee01d6 80e680e6     . . {.{!........
 800a832:	e0ee80e6 806a209c 21de4083 c1ac61ff     ..... j..@.!.a..
 800a842:	207ba06a 84834062 ffffffff ffffffff     j.{ b@..........
 800a852:	ffffffff ffffffff ffffffff ffffffff     ................
 800a862:	ffffffff ffffffff ffffffff ffffffff     ................
 800a872:	ffffffff ffffffff ffffffff ffffffff     ................
 800a882:	ffffffff ffffffff ffffffff ffffffff     ................
 800a892:	ffffffff ffffffff aa52ffff 41080000     ..........R....A
	...
 800a8c2:	43000000 8600a608 86088608 42006500     ...C.........e.B
 800a8d2:	00000000 e3180000 ffffdbde ffffffff     ................
 800a8e2:	ffffffff ffffffff ffffffff ffffffff     ................
 800a8f2:	ffffffff ffffffff ffffffff ffffffff     ................
 800a902:	ffffffff ffffffff ffffffff 40620ead     ..............b@
 800a912:	818bc072 c2cdc1ff 007b6162 20834083     r.......ba{..@. 
 800a922:	20832083 20832083 20832083 20832083     . . . . . . . . 
 800a932:	40832083 a172207b 00f761c5 60e680e6     . .@{ r..a.....`
 800a942:	c0ee80e6 806a009c 41de6183 429c41ff     ......j..a.A.A.B
 800a952:	608b806a 2062a193 ffffdade ffffffff     j..`..b ........
 800a962:	ffffffff ffffffff ffffffff ffffffff     ................
 800a972:	ffffffff ffffffff ffffffff ffffffff     ................
 800a982:	ffffffff ffffffff ffffffff ffffffff     ................
 800a992:	ffffffff ffffffff ffffffff ffffffff     ................
 800a9a2:	ffffffff ffffffff 59cedfff 0000a318     ...........Y....
	...
 800a9d6:	21000100 00002100 00000000 00000000     ...!.!..........
 800a9e6:	1bdfe739 ffffffff ffffffff ffffffff     9...............
 800a9f6:	ffffffff ffffffff ffffffff ffffffff     ................
 800aa06:	ffffffff ffffffff ffffffff ffffffff     ................
 800aa16:	ffffffff ffffffff c68bffff 806ac072     ............r.j.
 800aa26:	e1ff01b5 4162a2ac 4083207b 40832083     ......bA{ .@. .@
 800aa36:	20832083 20832083 20832083 40832083     . . . . . . . .@
 800aa46:	a06a4083 21f781ac 80e680e6 c1ee80e6     .@j....!........
 800aa56:	606a0194 81e6818b c193e0ee 01944062     ..j`........b@..
 800aa66:	209c22f7 ffff8a83 ffffffff ffffffff     .". ............
 800aa76:	ffffffff ffffffff ffffffff ffffffff     ................
 800aa86:	ffffffff ffffffff ffffffff ffffffff     ................
 800aa96:	ffffffff ffffffff ffffffff ffffffff     ................
 800aaa6:	ffffffff ffffffff ffffffff ffffffff     ................
 800aab6:	ffffffff def7bef7 294adade 00000000     ..........J)....
	...
 800aaf2:	694a0000 ffff1bdf ffffffff ffffffff     ..Ji............
 800ab02:	ffffffff ffffffff ffffffff ffffffff     ................
 800ab12:	ffffffff ffffffff ffffffff ffffffff     ................
 800ab22:	ffffffff ffffffff ffffffff cea4ffff     ................
 800ab32:	007b4062 61e6c172 82a4a1ff 207b6062     b@{.r..a....b`{ 
 800ab42:	40834083 20832083 20832083 20832083     .@.@. . . . . . 
 800ab52:	20832083 c072407b a1eec193 60e680e6     . . {@r........`
 800ab62:	21f7c0f6 606ac193 e1eec193 618380e6     ...!..j`.......a
 800ab72:	81a46062 00f741ff bbd60094 ffffffff     b`...A..........
 800ab82:	ffffffff ffffffff ffffffff ffffffff     ................
 800ab92:	ffffffff ffffffff ffffffff ffffffff     ................
 800aba2:	ffffffff ffffffff ffffffff ffffffff     ................
 800abb2:	ffffffff ffffffff ffffffff ffffffff     ................
 800abc2:	ffffffff ffffffff 5defffff bef7ffff     ...........]....
 800abd2:	694aae73 2000c739 00000000 00000000     s.Ji9.. ........
	...
 800abf2:	e4204108 c318e318 82106108 08422421     .A ......a..!$B.
 800ac02:	bef7139d ffffffff ffffffff ffffffff     ................
 800ac12:	ffffffff ffffffff ffffffff ffffffff     ................
 800ac22:	ffffffff ffffffff ffffffff ffffffff     ................
 800ac32:	ffffffff ffffffff ffffffff cea4ffff     ................
 800ac42:	6083e059 e19ba06a 60ff20f7 606a82ac     Y..`j.... .`..j`
 800ac52:	4083207b 20832083 20832083 20832083     { .@. . . . . . 
 800ac62:	20832083 207b4083 e0d5007b 01f7e0f6     . . .@{ {.......
 800ac72:	a1ace1ee a06ae07a 01f7e293 217b20d6     ....z.j...... {!
 800ac82:	21b5806a a0ee00f7 0dce40de ffffffff     j..!.....@......
 800ac92:	ffffffff ffffffff ffffffff ffffffff     ................
 800aca2:	ffffffff ffffffff ffffffff ffffffff     ................
 800acb2:	ffffffff ffffffff ffffffff ffffffff     ................
 800acc2:	ffffffff ffffffff ffffffff ffffffff     ................
 800acd2:	ffffffff ffffffff ffffffff def7ffff     ................
 800ace2:	3ce7bef7 f39c38c6 a6314d6b 00000000     ...<.8..kM1.....
	...
 800acfe:	8e73a739 38c655ad f7bd18c6 f7bdb6b5     9.s..U.8........
 800ad0e:	bef7bad6 ffffffff ffffffff ffffffff     ................
 800ad1e:	ffffffff ffffffff ffffffff ffffffff     ................
 800ad2e:	ffffffff ffffffff ffffffff ffffffff     ................
 800ad3e:	ffffffff ffffffff ffffffff ffffffff     ................
 800ad4e:	6fb5ffff e172c051 806a4083 60ff61c5     ...oQ.r..@j..a.`
 800ad5e:	82a421f7 207b4062 20834083 20832083     .!..b@{ .@. . . 
 800ad6e:	20832083 40832083 407b2083 61c5806a     . . . .@. {@j..a
 800ad7e:	e2d5c1ff 806aa18b a072207b 40ff219c     ......j.{ r..!.@
 800ad8e:	007be0cd 61c5a072 80e600f7 c1cdc0f6     ..{.r..a........
 800ad9e:	ffff3ce7 ffffffff ffffffff ffffffff     .<..............
 800adae:	ffffffff ffffffff ffffffff ffffffff     ................
 800adbe:	ffffffff ffffffff ffffffff ffffffff     ................
 800adce:	ffffffff ffffffff ffffffff ffffffff     ................
 800adde:	ffffffff ffffffff ffffffff ffffffff     ................
 800adee:	ffffffff ffffffff 3ce75ce7 bad63ce7     .........\.<.<..
 800adfe:	0c6314a5 86312842 04210421 139daa52     ..c.B(1.!.!.R...
 800ae0e:	fffffbde ffffffff ffffffff ffffffff     ................
 800ae1e:	ffffffff ffffffff ffffffff ffffffff     ................
 800ae2e:	ffffffff ffffffff ffffffff ffffffff     ................
 800ae3e:	ffffffff ffffffff ffffffff ffffffff     ................
 800ae4e:	ffffffff ffffffff ffffffff ffffffff     ................
 800ae5e:	36ceffff c0726062 a0722083 e1f6219c     ...6b`r.. r..!..
 800ae6e:	41f7c0ee 816282a4 4083207b 2083407b     ...A..b.{ .@{@. 
 800ae7e:	20832083 40832083 20832083 c193007b     . . . .@. . {...
 800ae8e:	e07a61a4 407ba06a a0724083 60ff419c     .az.j.{@.@r..A.`
 800ae9e:	a16aa1c5 01d6007b 80e6e0ee e0dd80e6     ..j.{...........
 800aeae:	ffff15df ffffffff ffffffff ffffffff     ................
 800aebe:	ffffffff ffffffff ffffffff ffffffff     ................
 800aece:	ffffffff ffffffff ffffffff ffffffff     ................
 800aede:	ffffffff ffffffff ffffffff ffffffff     ................
 800aeee:	ffffffff ffffffff ffffffff ffffffff     ................
 800aefe:	ffffffff ffffffff ffffffff def7ffff     ................
 800af0e:	9ef7ffff 9ad61ce7 dbde79ce ffffffff     .........y......
 800af1e:	ffffffff ffffffff ffffffff ffffffff     ................
 800af2e:	ffffffff ffffffff ffffffff ffffffff     ................
 800af3e:	ffffffff ffffffff ffffffff ffffffff     ................
 800af4e:	ffffffff ffffffff ffffffff ffffffff     ................
 800af5e:	ffffffff ffffffff ffffffff ffffffff     ................
 800af6e:	bef7ffff a0724283 4083c172 81cda06a     .....Br.r..@j...
 800af7e:	a0ee00f7 c2ac61ff 007b6162 20834083     .....a..ba{..@. 
 800af8e:	20832083 20832083 20832083 e0724083     . . . . . . .@r.
 800af9e:	007ba06a 20834083 c0722083 80ff80a4     j.{..@. . r.....
 800afae:	406222bd a1eec193 60e6a0e6 40e680e6     ."b@.......`...@
 800afbe:	ffff8dde ffffffff ffffffff ffffffff     ................
 800afce:	ffffffff ffffffff ffffffff ffffffff     ................
 800afde:	ffffffff ffffffff ffffffff ffffffff     ................
 800afee:	ffffffff ffffffff ffffffff ffffffff     ................
 800affe:	ffffffff ffffffff ffffffff ffffffff     ................
 800b00e:	ffffffff ffffffff ffffffff ffffffff     ................
 800b01e:	ffffffff ffffffff ffffffff ffffffff     ................
 800b02e:	ffffffff ffffffff ffffffff ffffffff     ................
 800b03e:	ffffffff ffffffff ffffffff ffffffff     ................
 800b04e:	ffffffff ffffffff ffffffff ffffffff     ................
 800b05e:	ffffffff ffffffff ffffffff ffffffff     ................
 800b06e:	ffffffff ffffffff ffffffff ffffffff     ................
 800b07e:	ffffffff 60626b9c 007bc172 e19ba072     .....kb`r.{.r...
 800b08e:	80e601f7 41ffa0ee 606aa2ac 4083007b     .......A..j`{..@
 800b09e:	20832083 20832083 20832083 207b2083     . . . . . . . { 
 800b0ae:	207b407b 40832083 415aa08b c0ffe193     {@{ . .@..ZA....
 800b0be:	205a01b5 01f761a4 80e680e6 80ee80e6     ..Z .a..........
 800b0ce:	7defe3cd ffffffff ffffffff ffffffff     ...}............
 800b0de:	ffffffff ffffffff ffffffff ffffffff     ................
 800b0ee:	ffffffff ffffffff ffffffff ffffffff     ................
 800b0fe:	ffffffff ffffffff ffffffff ffffffff     ................
 800b10e:	ffffffff ffffffff ffffffff ffffffff     ................
 800b11e:	ffffffff ffffffff ffffffff ffffffff     ................
 800b12e:	ffffffff ffffffff ffffffff ffffffff     ................
 800b13e:	ffffffff ffffffff ffffffff ffffffff     ................
 800b14e:	ffffffff ffffffff ffffffff ffffffff     ................
 800b15e:	ffffffff ffffffff ffffffff ffffffff     ................
 800b16e:	ffffffff ffffffff ffffffff ffffffff     ................
 800b17e:	ffffffff ffffffff ffffffff ffffffff     ................
 800b18e:	ffffffff 606256ce 6183a08b c072e072     .....Vb`...ar.r.
 800b19e:	00f781c5 a0ee60e6 02b541ff e072616a     .....`...A..jar.
 800b1ae:	407b4083 20832083 2083207b 20832083     .@{@. . { . . . 
 800b1be:	40832083 618b808b c128816a e1ff0194     . .@...aj.(.....
 800b1ce:	2062c0b4 01f741bd 80e680e6 a0ee80e6     ..b .A..........
 800b1de:	f9dec0cd ffffffff ffffffff ffffffff     ................
 800b1ee:	ffffffff ffffffff ffffffff ffffffff     ................
 800b1fe:	ffffffff ffffffff ffffffff ffffffff     ................
 800b20e:	ffffffff ffffffff ffffffff ffffffff     ................
 800b21e:	ffffffff ffffffff ffffffff ffffffff     ................
 800b22e:	ffffffff ffffffff ffffffff ffffffff     ................
 800b23e:	ffffffff ffffffff ffffffff ffffffff     ................
 800b24e:	ffffffff ffffffff ffffffff ffffffff     ................
 800b25e:	ffffffff ffffffff ffffffff ffffffff     ................
 800b26e:	ffffffff ffffffff ffffffff ffffffff     ................
 800b27e:	ffffffff ffffffff ffffffff ffffffff     ................
 800b28e:	ffffffff ffffffff ffffffff ffffffff     ................
 800b29e:	ffffffff 437bffff c3b4e07a 606a6183     ......{Cz....aj`
 800b2ae:	21ff219c 60e680e6 41ffa0ee 816a22bd     .!.!...`...A."j.
 800b2be:	6083c072 40834083 40834083 608b4083     r..`.@.@.@.@.@.`
 800b2ce:	608b808b 0152e172 e1286139 e1ffc1ac     ...`r.R.9a(.....
 800b2de:	806ae1b4 e0ee01d6 80e680e6 a0e660e6     ..j..........`..
 800b2ee:	5ce7c2cd ffffffff ffffffff ffffffff     ...\............
 800b2fe:	ffffffff ffffffff ffffffff ffffffff     ................
 800b30e:	ffffffff ffffffff ffffffff ffffffff     ................
 800b31e:	ffffffff ffffffff ffffffff ffffffff     ................
 800b32e:	ffffffff ffffffff ffffffff ffffffff     ................
 800b33e:	ffffffff ffffffff ffffffff ffffffff     ................
 800b34e:	ffffffff ffffffff ffffffff ffffffff     ................
 800b35e:	ffffffff ffffffff ffffffff ffffffff     ................
 800b36e:	ffffffff ffffffff ffffffff ffffffff     ................
 800b37e:	ffffffff ffffffff ffffffff ffffffff     ................
 800b38e:	ffffffff ffffffff ffffffff ffffffff     ................
 800b39e:	ffffffff ffffffff ffffffff ffffffff     ................
 800b3ae:	ffffffff 0eadffff 01bdc051 6062c2ac     ........Q.....b`
 800b3be:	01de007b 60e600f7 80e660e6 a2c541ff     {......`.`...A..
 800b3ce:	2062c172 6083017b 207b4083 e072207b     r.b {..`.@{ { r.
 800b3de:	2152a16a 81398141 c1284139 c0ff61bd     j.R!A.9.9A(..a..
 800b3ee:	418301b5 a0ee81e6 80e660e6 40e680e6     ...A.....`.....@
 800b3fe:	fff74ad6 ffffffff ffffffff ffffffff     .J..............
 800b40e:	ffffffff ffffffff ffffffff ffffffff     ................
 800b41e:	ffffffff ffffffff ffffffff ffffffff     ................
 800b42e:	ffffffff ffffffff ffffffff ffffffff     ................
 800b43e:	ffffffff ffffffff ffffffff ffffffff     ................
 800b44e:	ffffffff ffffffff ffffffff ffffffff     ................
 800b45e:	ffffffff ffffffff ffffffff ffffffff     ................
 800b46e:	ffffffff ffffffff ffffffff ffffffff     ................
 800b47e:	ffffffff ffffffff ffffffff ffffffff     ................
 800b48e:	ffffffff ffffffff ffffffff ffffffff     ................
 800b49e:	ffffffff ffffffff ffffffff ffffffff     ................
 800b4ae:	ffffffff ffffffff ffffffff ffffffff     ................
 800b4be:	ffffffff 5befffff a08ba06a 217bc2cd     .......[j.....{!
 800b4ce:	0194806a a0e601f7 80e680e6 20f780e6     j.............. 
 800b4de:	a28362e6 20390131 e149e051 a141c149     .b..1.9 Q.I.I.A.
 800b4ee:	60396139 a0280031 e36a4241 60ff21d6     9a9`1.(.ABj..!.`
 800b4fe:	219c01b5 80e600f7 60e660e6 00de80e6     ...!.....`.`....
 800b50e:	fffff3e6 ffffffff ffffffff ffffffff     ................
 800b51e:	ffffffff ffffffff ffffffff ffffffff     ................
 800b52e:	ffffffff ffffffff ffffffff ffffffff     ................
 800b53e:	ffffffff ffffffff ffffffff ffffffff     ................
 800b54e:	ffffffff ffffffff ffffffff ffffffff     ................
 800b55e:	ffffffff ffffffff ffffffff ffffffff     ................
 800b56e:	ffffffff ffffffff ffffffff ffffffff     ................
 800b57e:	ffffffff ffffffff ffffffff ffffffff     ................
 800b58e:	ffffffff ffffffff ffffffff ffffffff     ................
 800b59e:	ffffffff ffffffff ffffffff ffffffff     ................
 800b5ae:	ffffffff ffffffff ffffffff ffffffff     ................
 800b5be:	ffffffff ffffffff ffffffff ffffffff     ................
 800b5ce:	ffffffff b9d6ffff c0726062 c2ac61e6     ........b`r..a..
 800b5de:	e07a205a 21f781c5 80e660e6 60e660e6     Z z....!.`...`.`
 800b5ee:	61ff00f7 024a02ad a020a120 c128c028     ...a..J. . .(.(.
 800b5fe:	2131c128 e293625a 83e682de 20f701de     (.1!Zb......... 
 800b60e:	e1b421bd 80e600f7 80e680e6 e0cda0ee     .!..............
 800b61e:	fffffade ffffffff ffffffff ffffffff     ................
 800b62e:	ffffffff ffffffff ffffffff ffffffff     ................
 800b63e:	ffffffff ffffffff ffffffff ffffffff     ................
 800b64e:	ffffffff ffffffff ffffffff ffffffff     ................
 800b65e:	ffffffff ffffffff ffffffff ffffffff     ................
 800b66e:	ffffffff ffffffff ffffffff ffffffff     ................
 800b67e:	ffffffff ffffffff ffffffff ffffffff     ................
 800b68e:	ffffffff ffffffff ffffffff ffffffff     ................
 800b69e:	ffffffff ffffffff ffffffff ffffffff     ................
 800b6ae:	ffffffff ffffffff ffffffff ffffffff     ................
 800b6be:	ffffffff ffffffff ffffffff ffffffff     ................
 800b6ce:	ffffffff ffffffff ffffffff ffffffff     ................
 800b6de:	ffffffff 04735def a06a4062 62f760c5     .....]s.b@j..`.b
 800b6ee:	0062a262 a1eec193 80e6c0ee 80e680e6     b.b.............
 800b6fe:	80e660e6 e1ee60ff c183e1ac a18b427b     .`...`......{B..
 800b70e:	81c5619c e2ff62ff 41bdc1ee e0f660de     .a...b.....A.`..
 800b71e:	61c5e2b4 80e6c0f6 60e680e6 09ce60e6     ...a.......`.`..
 800b72e:	ffffdff7 ffffffff ffffffff ffffffff     ................
 800b73e:	ffffffff ffffffff ffffffff ffffffff     ................
 800b74e:	ffffffff ffffffff ffffffff ffffffff     ................
 800b75e:	ffffffff ffffffff ffffffff ffffffff     ................
 800b76e:	ffffffff ffffffff ffffffff ffffffff     ................
 800b77e:	ffffffff ffffffff ffffffff ffffffff     ................
 800b78e:	ffffffff ffffffff ffffffff ffffffff     ................
 800b79e:	ffffffff ffffffff ffffffff ffffffff     ................
 800b7ae:	ffffffff ffffffff ffffffff ffffffff     ................
 800b7be:	ffffffff ffffffff ffffffff ffffffff     ................
 800b7ce:	ffffffff ffffffff ffffffff ffffffff     ................
 800b7de:	ffffffff ffffffff ffffffff ffffffff     ................
 800b7ee:	ffffffff 406a4fad 6062e072 e1ff40a4     .....Oj@r.b`.@..
 800b7fe:	a018a2ac 41bd4162 80e681ff 60e660e6     ....bA.A.....`.`
 800b80e:	80e680e6 a0ee60e6 a1ff60ff e1ffa1ff     .....`...`......
 800b81e:	01f7e1ff 009c81cd 62a4215a a1e620f7     ........Z!.b. ..
 800b82e:	e0cd629c 80e6a0ee 80ee60e6 47ad20de     .b.......`... .G
 800b83e:	ffffdff7 ffffffff ffffffff ffffffff     ................
 800b84e:	ffffffff ffffffff ffffffff ffffffff     ................
 800b85e:	ffffffff ffffffff ffffffff ffffffff     ................
 800b86e:	ffffffff ffffffff ffffffff ffffffff     ................
 800b87e:	ffffffff ffffffff ffffffff ffffffff     ................
 800b88e:	ffffffff ffffffff ffffffff ffffffff     ................
 800b89e:	ffffffff ffffffff ffffffff ffffffff     ................
 800b8ae:	ffffffff ffffffff ffffffff ffffffff     ................
 800b8be:	ffffffff ffffffff ffffffff ffffffff     ................
 800b8ce:	ffffffff ffffffff ffffffff ffffffff     ................
 800b8de:	ffffffff ffffffff ffffffff ffffffff     ................
 800b8ee:	ffffffff ffffffff ffffffff ffffffff     ................
 800b8fe:	deffffff 408304b5 415aa06a 61e6818b     .......@j.ZA...a
 800b90e:	825a41ff a16a8020 41ff81c5 80e6e0f6     .AZ. .j....A....
 800b91e:	a0ee80e6 01f7e0ee 41e601f7 20bda0cd     ...........A... 
 800b92e:	007b41a4 c072e051 02d662a4 01d600f7     .A{.Q.r..b......
 800b93e:	60e6229c 80e680e6 c0ee80e6 40bde0cd     .".`...........@
 800b94e:	ffff36ef ffffffff ffffffff ffffffff     .6..............
 800b95e:	ffffffff ffffffff ffffffff ffffffff     ................
 800b96e:	ffffffff ffffffff ffffffff ffffffff     ................
 800b97e:	ffffffff ffffffff ffffffff ffffffff     ................
 800b98e:	ffffffff ffffffff ffffffff ffffffff     ................
 800b99e:	ffffffff ffffffff ffffffff ffffffff     ................
 800b9ae:	ffffffff ffffffff ffffffff ffffffff     ................
 800b9be:	ffffffff ffffffff ffffffff ffffffff     ................
 800b9ce:	ffffffff ffffffff ffffffff ffffffff     ................
 800b9de:	ffffffff ffffffff ffffffff ffffffff     ................
 800b9ee:	ffffffff ffffffff ffffffff ffffffff     ................
 800b9fe:	ffffffff ffffffff ffffffff ffffffff     ................
 800ba0e:	36efffff 608b40c5 0152a172 01b5806a     ...6.@.`r.R.j...
 800ba1e:	62e6e0ff 60206139 81a4a149 c1eec1ee     ...b9a `I.......
 800ba2e:	a1e6c1ee 41bd01d6 418341a4 005a806a     .......A.A.Aj.Z.
 800ba3e:	017be051 c2eec2ac 01d681de 41bd00f7     Q.{............A
 800ba4e:	e0f6219c 80e680e6 60e680e6 20dea1cd     .!.........`... 
 800ba5e:	ffff8dde ffffffff ffffffff ffffffff     ................
 800ba6e:	ffffffff ffffffff ffffffff ffffffff     ................
 800ba7e:	ffffffff ffffffff ffffffff ffffffff     ................
 800ba8e:	ffffffff ffffffff ffffffff ffffffff     ................
 800ba9e:	ffffffff ffffffff ffffffff ffffffff     ................
 800baae:	ffffffff ffffffff ffffffff ffffffff     ................
 800babe:	ffffffff ffffffff ffffffff ffffffff     ................
 800bace:	ffffffff ffffffff ffffffff ffffffff     ................
 800bade:	ffffffff ffffffff ffffffff ffffffff     ................
 800baee:	ffffffff ffffffff ffffffff ffffffff     ................
 800bafe:	ffffffff ffffffff ffffffff ffffffff     ................
 800bb0e:	ffffffff ffffffff ffffffff ffffffff     ................
 800bb1e:	f1e6ffff 4083a0cd c149007b e0934062     .......@{.I.b@..
 800bb2e:	a0ffa1ee 013162c5 6141a020 0194c172     .....b1. .Aar...
 800bb3e:	a18b009c c1722183 c0728062 2194417b     .....!r.b.r.{A.!
 800bb4e:	61e622bd c0f640ff 41dea2c5 a2a420ff     .".a.@.....A. ..
 800bb5e:	00f781ac 60e680e6 e1d5a0ee c0eea1c5     .......`........
 800bb6e:	bff706ce ffffffff ffffffff ffffffff     ................
 800bb7e:	ffffffff ffffffff ffffffff ffffffff     ................
 800bb8e:	ffffffff ffffffff ffffffff ffffffff     ................
 800bb9e:	ffffffff ffffffff ffffffff ffffffff     ................
 800bbae:	ffffffff ffffffff ffffffff ffffffff     ................
 800bbbe:	ffffffff ffffffff ffffffff ffffffff     ................
 800bbce:	ffffffff ffffffff ffffffff ffffffff     ................
 800bbde:	ffffffff ffffffff ffffffff ffffffff     ................
 800bbee:	ffffffff ffffffff ffffffff ffffffff     ................
 800bbfe:	ffffffff ffffffff ffffffff ffffffff     ................
 800bc0e:	ffffffff ffffffff ffffffff ffffffff     ................
 800bc1e:	ffffffff ffffffff ffffffff ffffffff     ................
 800bc2e:	eee6ffff 608b00d6 c0494083 e07a415a     .......`.@I.ZAz.
 800bc3e:	20ff01bd 02d620f7 215ac293 a072005a     ... . ....Z!Z.r.
 800bc4e:	c072c072 a2acc072 21d6a1e6 01f741de     r.r.r......!.A..
 800bc5e:	a0ee21ff 41dee0f6 c0eea1cd 229ce1ee     .!.....A......."
 800bc6e:	e0ee61c5 80e680de 62bde0f6 00f762c5     .a.........b.b..
 800bc7e:	3be7e1cd ffffffff ffffffff ffffffff     ...;............
 800bc8e:	ffffffff ffffffff ffffffff ffffffff     ................
 800bc9e:	ffffffff ffffffff ffffffff ffffffff     ................
 800bcae:	ffffffff ffffffff ffffffff ffffffff     ................
 800bcbe:	ffffffff ffffffff ffffffff ffffffff     ................
 800bcce:	ffffffff ffffffff ffffffff ffffffff     ................
 800bcde:	ffffffff ffffffff ffffffff ffffffff     ................
 800bcee:	ffffffff ffffffff ffffffff ffffffff     ................
 800bcfe:	ffffffff ffffffff ffffffff ffffffff     ................
 800bd0e:	ffffffff ffffffff ffffffff ffffffff     ................
 800bd1e:	ffffffff ffffffff ffffffff ffffffff     ................
 800bd2e:	ffffffff ffffffff ffffffff ffffffff     ................
 800bd3e:	ede6ffff 808b20de 61622083 e1724139     ..... ... ba9Ar.
 800bd4e:	a1eea18b 00f7e0ee 82cd22f7 816a818b     ........."....j.
 800bd5e:	007ba06a 017b007b a1ff61c5 a0e640ff     j.{.{.{..a...@..
 800bd6e:	61ffa0e6 628301de 20ffc1cd e293e1cd     ...a...b... ....
 800bd7e:	80e681e6 60e680e6 83a401ef e0f681cd     .......`........
 800bd8e:	f8e6e0cd ffffffff ffffffff ffffffff     ................
 800bd9e:	ffffffff ffffffff ffffffff ffffffff     ................
 800bdae:	ffffffff ffffffff ffffffff ffffffff     ................
 800bdbe:	ffffffff ffffffff ffffffff ffffffff     ................
 800bdce:	ffffffff ffffffff ffffffff ffffffff     ................
 800bdde:	ffffffff ffffffff ffffffff ffffffff     ................
 800bdee:	ffffffff ffffffff ffffffff ffffffff     ................
 800bdfe:	ffffffff ffffffff ffffffff ffffffff     ................
 800be0e:	ffffffff ffffffff ffffffff ffffffff     ................
 800be1e:	ffffffff ffffffff ffffffff ffffffff     ................
 800be2e:	ffffffff ffffffff ffffffff ffffffff     ................
 800be3e:	ffffffff ffffffff ffffffff ffffffff     ................
 800be4e:	cde6ffff c19360e6 6183e07a a141e151     .....`..z..aQ.A.
 800be5e:	81ac816a a0e601f7 20f780e6 22bdc2ee     j.......... ..."
 800be6e:	217b0194 606a806a 61a4606a e1ee01d6     ..{!j.j`j`.a....
 800be7e:	a1ac81e6 82a4a16a 20ffe1ee a1a4e1b4     ....j...... ....
 800be8e:	60e600f7 c0ee80e6 818b02d6 c0ee20de     ...`......... ..
 800be9e:	f9e6e0d5 ffffffff ffffffff ffffffff     ................
 800beae:	ffffffff ffffffff ffffffff ffffffff     ................
 800bebe:	ffffffff ffffffff ffffffff ffffffff     ................
 800bece:	ffffffff ffffffff ffffffff ffffffff     ................
 800bede:	ffffffff ffffffff ffffffff ffffffff     ................
 800beee:	ffffffff ffffffff ffffffff ffffffff     ................
 800befe:	ffffffff ffffffff ffffffff ffffffff     ................
 800bf0e:	ffffffff ffffffff ffffffff ffffffff     ................
 800bf1e:	ffffffff ffffffff ffffffff ffffffff     ................
 800bf2e:	ffffffff ffffffff ffffffff ffffffff     ................
 800bf3e:	ffffffff ffffffff ffffffff ffffffff     ................
 800bf4e:	ffffffff ffffffff ffffffff ffffffff     ................
 800bf5e:	afdeffff 41a4a0ee 6083806a 6162818b     .......Aj..`..ba
 800bf6e:	8062e151 21ff01bd 60e660e6 20f7a0e6     Q.b....!.`.`... 
 800bf7e:	42de01f7 e193e2ac 205a217b 6183616a     ...B....{!Z ja.a
 800bf8e:	227b427b 41ffa2c5 a1e680ee 20dea2a4     {B{"...A....... 
 800bf9e:	80e6a0ee 40ff60e6 e07282ac e0f681e6     .....`.@..r.....
 800bfae:	3ce7e0cd ffffffff ffffffff ffffffff     ...<............
 800bfbe:	ffffffff ffffffff ffffffff ffffffff     ................
 800bfce:	ffffffff ffffffff ffffffff ffffffff     ................
 800bfde:	ffffffff ffffffff ffffffff ffffffff     ................
 800bfee:	ffffffff ffffffff ffffffff ffffffff     ................
 800bffe:	ffffffff ffffffff ffffffff ffffffff     ................
 800c00e:	ffffffff ffffffff ffffffff ffffffff     ................
 800c01e:	ffffffff ffffffff ffffffff ffffffff     ................
 800c02e:	ffffffff ffffffff ffffffff ffffffff     ................
 800c03e:	ffffffff ffffffff ffffffff ffffffff     ................
 800c04e:	ffffffff ffffffff ffffffff ffffffff     ................
 800c05e:	ffffffff ffffffff ffffffff ffffffff     ................
 800c06e:	b2d6ffff 60c580e6 207b606a 808b4083     .......`j`{ .@..
 800c07e:	4162e172 41dee072 60e600f7 60e680e6     r.bAr..A...`...`
 800c08e:	e0ee60e6 e1ee21ff 81c522d6 e1b421bd     .`...!..."...!..
 800c09e:	c2ee82c5 60e620f7 01b520f7 20f7219c     ..... .`. ...!. 
 800c0ae:	60e680e6 a1eea0ee 608b217b 40e6e0f6     ...`....{!.`...@
 800c0be:	dff709ce ffffffff ffffffff ffffffff     ................
 800c0ce:	ffffffff ffffffff ffffffff ffffffff     ................
 800c0de:	ffffffff ffffffff ffffffff ffffffff     ................
 800c0ee:	ffffffff ffffffff ffffffff ffffffff     ................
 800c0fe:	ffffffff ffffffff ffffffff ffffffff     ................
 800c10e:	ffffffff ffffffff ffffffff ffffffff     ................
 800c11e:	ffffffff ffffffff ffffffff ffffffff     ................
 800c12e:	ffffffff ffffffff ffffffff ffffffff     ................
 800c13e:	ffffffff ffffffff ffffffff ffffffff     ................
 800c14e:	ffffffff ffffffff ffffffff ffffffff     ................
 800c15e:	ffffffff ffffffff ffffffff ffffffff     ................
 800c16e:	ffffffff ffffffff ffffffff ffffffff     ................
 800c17e:	f8deffff 20f7e0d5 606a81ac 4083007b     ....... ..j`{..@
 800c18e:	217b608b a18b215a c0eee1ee 80e680e6     .`{!Z!..........
 800c19e:	60e680e6 80e680e6 00f7c0ee 00f700f7     ...`............
 800c1ae:	80e6e0f6 80e660e6 c28bc1ee e0eea1c5     .....`..........
 800c1be:	80e680e6 21b520ff 007b005a 09cea0cd     ..... .!Z.{.....
 800c1ce:	ffff7def ffffffff ffffffff ffffffff     .}..............
 800c1de:	ffffffff ffffffff ffffffff ffffffff     ................
 800c1ee:	ffffffff ffffffff ffffffff ffffffff     ................
 800c1fe:	ffffffff ffffffff ffffffff ffffffff     ................
 800c20e:	ffffffff ffffffff ffffffff ffffffff     ................
 800c21e:	ffffffff ffffffff ffffffff ffffffff     ................
 800c22e:	ffffffff ffffffff ffffffff ffffffff     ................
 800c23e:	ffffffff ffffffff ffffffff ffffffff     ................
 800c24e:	ffffffff ffffffff ffffffff ffffffff     ................
 800c25e:	ffffffff ffffffff ffffffff ffffffff     ................
 800c26e:	ffffffff ffffffff ffffffff ffffffff     ................
 800c27e:	ffffffff ffffffff ffffffff ffffffff     ................
 800c28e:	9ff7ffff a0f6a4c5 22b521f7 806aa172     .........!."r.j.
 800c29e:	60832083 e159007b 41ffa1ac 60e680e6     . .`{.Y....A...`
 800c2ae:	80e680de 80e660e6 80e680e6 80e680e6     .....`..........
 800c2be:	80e680e6 20ff60e6 e193a2ac 60e621f7     .....`. .....!.`
 800c2ce:	80e680de c08b60ff 09940052 fff797d6     .....`..R.......
 800c2de:	ffffffff ffffffff ffffffff ffffffff     ................
 800c2ee:	ffffffff ffffffff ffffffff ffffffff     ................
 800c2fe:	ffffffff ffffffff ffffffff ffffffff     ................
 800c30e:	ffffffff ffffffff ffffffff ffffffff     ................
 800c31e:	ffffffff ffffffff ffffffff ffffffff     ................
 800c32e:	ffffffff ffffffff ffffffff ffffffff     ................
 800c33e:	ffffffff ffffffff ffffffff ffffffff     ................
 800c34e:	ffffffff ffffffff ffffffff ffffffff     ................
 800c35e:	ffffffff ffffffff ffffffff ffffffff     ................
 800c36e:	ffffffff ffffffff ffffffff ffffffff     ................
 800c37e:	ffffffff ffffffff ffffffff ffffffff     ................
 800c38e:	ffffffff ffffffff ffffffff ffffffff     ................
 800c39e:	ffffffff 83c5f8de 20ff20de e09320de     ......... . . ..
 800c3ae:	207bc072 c172408b 81c5215a 60e640ff     r.{ .@r.Z!...@.`
 800c3be:	80e660e6 80e680e6 80e680e6 80e680e6     .`..............
 800c3ce:	80e680e6 c1e680ee a1cdc18b 80dee0f6     ................
 800c3de:	80ff60de 2d6b4194 ffffb9d6 ffffffff     .`...Ak-........
 800c3ee:	ffffffff ffffffff ffffffff ffffffff     ................
 800c3fe:	ffffffff ffffffff ffffffff ffffffff     ................
 800c40e:	ffffffff ffffffff ffffffff ffffffff     ................
 800c41e:	ffffffff ffffffff ffffffff ffffffff     ................
 800c42e:	ffffffff ffffffff ffffffff ffffffff     ................
 800c43e:	ffffffff ffffffff ffffffff ffffffff     ................
 800c44e:	ffffffff ffffffff ffffffff ffffffff     ................
 800c45e:	ffffffff ffffffff ffffffff ffffffff     ................
 800c46e:	ffffffff ffffffff ffffffff ffffffff     ................
 800c47e:	ffffffff ffffffff ffffffff ffffffff     ................
 800c48e:	ffffffff ffffffff ffffffff ffffffff     ................
 800c49e:	ffffffff ffffffff ffffffff ffffffff     ................
 800c4ae:	ffffffff 5be7ffff e7cd2ece 81de82de     .......[........
 800c4be:	2062009c 80724062 e2724062 40ff21ff     ..b b@r.b@r..!.@
 800c4ce:	80e660e6 81e660de a0e600f7 80e660e6     .`...`.......`..
 800c4de:	60e680e6 e2b440ff 20ff619c 60de60e6     ...`.@...a. .`.`
 800c4ee:	a0e660ff 3c6c0600 ffffffff ffffffff     .`....l<........
 800c4fe:	ffffffff ffffffff ffffffff ffffffff     ................
 800c50e:	ffffffff ffffffff ffffffff ffffffff     ................
 800c51e:	ffffffff ffffffff ffffffff ffffffff     ................
 800c52e:	ffffffff ffffffff ffffffff ffffffff     ................
 800c53e:	ffffffff ffffffff ffffffff ffffffff     ................
 800c54e:	ffffffff ffffffff ffffffff ffffffff     ................
 800c55e:	ffffffff ffffffff ffffffff ffffffff     ................
 800c56e:	ffffffff ffffffff ffffffff ffffffff     ................
 800c57e:	ffffffff ffffffff ffffffff ffffffff     ................
 800c58e:	ffffffff ffffffff ffffffff ffffffff     ................
 800c59e:	ffffffff ffffffff ffffffff ffffffff     ................
 800c5ae:	ffffffff ffffffff ffffffff ffffffff     ................
 800c5be:	ffffffff ffffffff bfefffff 58ef3ce7     .............<.X
 800c5ce:	d3c536ef 4fb570b5 02084652 01f70363     .6...p.ORF..c...
 800c5de:	20ffc1ff 02b580ee c1ee01b5 c0ee40ff     ... .........@..
 800c5ee:	20ff80e6 227b01d6 e0eee1d5 40ff60de     ... ..{".....`.@
 800c5fe:	813961ff 9e9d9400 ffffffff ffffffff     .a9.............
 800c60e:	ffffffff ffffffff ffffffff ffffffff     ................
 800c61e:	ffffffff ffffffff ffffffff ffffffff     ................
 800c62e:	ffffffff ffffffff ffffffff ffffffff     ................
 800c63e:	ffffffff ffffffff ffffffff ffffffff     ................
 800c64e:	ffffffff ffffffff ffffffff ffffffff     ................
 800c65e:	ffffffff ffffffff ffffffff ffffffff     ................
 800c66e:	ffffffff ffffffff ffffffff ffffffff     ................
 800c67e:	ffffffff ffffffff ffffffff ffffffff     ................
 800c68e:	ffffffff ffffffff ffffffff ffffffff     ................
 800c69e:	ffffffff ffffffff ffffffff ffffffff     ................
 800c6ae:	ffffffff ffffffff ffffffff ffffffff     ................
 800c6be:	ffffffff ffffffff ffffffff ffffffff     ................
 800c6ce:	ffffffff ffffffff ffffffff ffffffff     ................
 800c6de:	ffffffff ffffffff 0200b9ad 24210700     ..............!$
 800c6ee:	42de4394 a1ffa1ff 017b61a4 41de02b5     .C.B.....a{....A
 800c6fe:	62c5a1e6 81c56283 80e600f7 22f780ff     ...b.b........."
 800c70e:	09000142 be9d3e2b ffffffff ffffffff     B...+>..........
 800c71e:	ffffffff ffffffff ffffffff ffffffff     ................
 800c72e:	ffffffff ffffffff ffffffff ffffffff     ................
 800c73e:	ffffffff ffffffff ffffffff ffffffff     ................
 800c74e:	ffffffff ffffffff ffffffff ffffffff     ................
 800c75e:	ffffffff ffffffff ffffffff ffffffff     ................
 800c76e:	ffffffff ffffffff ffffffff ffffffff     ................
 800c77e:	ffffffff ffffffff ffffffff ffffffff     ................
 800c78e:	ffffffff ffffffff ffffffff ffffffff     ................
 800c79e:	ffffffff ffffffff ffffffff ffffffff     ................
 800c7ae:	ffffffff ffffffff ffffffff ffffffff     ................
 800c7be:	ffffffff ffffffff ffffffff ffffffff     ................
 800c7ce:	ffffffff ffffffff ffffffff ffffffff     ................
 800c7de:	ffffffff ffffffff ffffffff ffffffff     ................
 800c7ee:	ffffffff ffffffff 2b3affff 07000000     ..........:+....
 800c7fe:	c5100600 a3a48452 229c03d6 41a4007b     ....R......"{..A
 800c80e:	62c563c5 e0ff01ff 81ff80ff 022182bd     .c.b..........!.
 800c81e:	52110600 1c855e3b fffffeff ffffffff     ...R;^..........
 800c82e:	ffffffff ffffffff ffffffff ffffffff     ................
 800c83e:	ffffffff ffffffff ffffffff ffffffff     ................
 800c84e:	ffffffff ffffffff ffffffff ffffffff     ................
 800c85e:	ffffffff ffffffff ffffffff ffffffff     ................
 800c86e:	ffffffff ffffffff ffffffff ffffffff     ................
 800c87e:	ffffffff ffffffff ffffffff ffffffff     ................
 800c88e:	ffffffff ffffffff ffffffff ffffffff     ................
 800c89e:	ffffffff ffffffff ffffffff ffffffff     ................
 800c8ae:	ffffffff ffffffff ffffffff ffffffff     ................
 800c8be:	ffffffff ffffffff ffffffff ffffffff     ................
 800c8ce:	ffffffff ffffffff ffffffff ffffffff     ................
 800c8de:	ffffffff ffffffff ffffffff ffffffff     ................
 800c8ee:	ffffffff ffffffff ffffffff ffffffff     ................
 800c8fe:	ffffffff ffffffff 3cdfffff 0300a831     ...........<1...
 800c90e:	27008700 06000600 4642a608 c3622442     ...'......BFB$b.
 800c91e:	02b5c28b 229401ad 644a6373 08000400     ......."scJd....
 800c92e:	56228f00 bb7cdf43 fffffeff ffffffff     .."VC.|.........
 800c93e:	ffffffff ffffffff ffffffff ffffffff     ................
 800c94e:	ffffffff ffffffff ffffffff ffffffff     ................
 800c95e:	ffffffff ffffffff ffffffff ffffffff     ................
 800c96e:	ffffffff ffffffff ffffffff ffffffff     ................
 800c97e:	ffffffff ffffffff ffffffff ffffffff     ................
 800c98e:	ffffffff ffffffff ffffffff ffffffff     ................
 800c99e:	ffffffff ffffffff ffffffff ffffffff     ................
 800c9ae:	ffffffff ffffffff ffffffff ffffffff     ................
 800c9be:	ffffffff ffffffff ffffffff ffffffff     ................
 800c9ce:	ffffffff ffffffff ffffffff ffffffff     ................
 800c9de:	ffffffff ffffffff ffffffff ffffffff     ................
 800c9ee:	ffffffff ffffffff ffffffff ffffffff     ................
 800c9fe:	ffffffff ffffffff ffffffff ffffffff     ................
 800ca0e:	ffffffff ffffffff ffffffff 8b4affff     ..............J.
 800ca1e:	87000100 86008600 05002500 05000600     .........%......
 800ca2e:	04000400 04000400 06000400 5309ac00     ...............S
 800ca3e:	5a43f100 db7cdf3b fffffeff ffffffff     ..CZ;.|.........
 800ca4e:	ffffffff ffffffff ffffffff ffffffff     ................
 800ca5e:	ffffffff ffffffff ffffffff ffffffff     ................
 800ca6e:	ffffffff ffffffff ffffffff ffffffff     ................
 800ca7e:	ffffffff ffffffff ffffffff ffffffff     ................
 800ca8e:	ffffffff ffffffff ffffffff ffffffff     ................
 800ca9e:	ffffffff ffffffff ffffffff ffffffff     ................
 800caae:	ffffffff ffffffff ffffffff ffffffff     ................
 800cabe:	ffffffff ffffffff ffffffff ffffffff     ................
 800cace:	ffffffff ffffffff ffffffff ffffffff     ................
 800cade:	ffffffff ffffffff ffffffff ffffffff     ................
 800caee:	ffffffff ffffffff ffffffff ffffffff     ................
 800cafe:	ffffffff ffffffff ffffffff ffffffff     ................
 800cb0e:	ffffffff ffffffff ffffffff ffffffff     ................
 800cb1e:	ffffffff ffffffff ffffffff 7defffff     ...............}
 800cb2e:	04000400 8600a600 a808a808 87008708     ................
 800cb3e:	88008700 ca00a900 3109ed00 90005309     ...........1.S..
 800cb4e:	5f5c1422 5b953e2b ffffffff ffffffff     ".\_+>.[........
 800cb5e:	ffffffff ffffffff ffffffff ffffffff     ................
 800cb6e:	ffffffff ffffffff ffffffff ffffffff     ................
 800cb7e:	ffffffff ffffffff ffffffff ffffffff     ................
 800cb8e:	ffffffff ffffffff ffffffff ffffffff     ................
 800cb9e:	ffffffff ffffffff ffffffff ffffffff     ................
 800cbae:	ffffffff ffffffff ffffffff ffffffff     ................
 800cbbe:	ffffffff ffffffff ffffffff ffffffff     ................
 800cbce:	ffffffff ffffffff ffffffff ffffffff     ................
 800cbde:	ffffffff ffffffff ffffffff ffffffff     ................
 800cbee:	ffffffff ffffffff ffffffff ffffffff     ................
 800cbfe:	ffffffff ffffffff ffffffff ffffffff     ................
 800cc0e:	ffffffff ffffffff ffffffff ffffffff     ................
 800cc1e:	ffffffff ffffffff ffffffff ffffffff     ................
 800cc2e:	ffffffff ffffffff ffffffff ffffffff     ................
 800cc3e:	0000b48c 85006600 53090e09 30093109     .....f.....S.1.0
 800cc4e:	51093009 74095209 f1007509 552aaf00     .0.Q.R.t.u....*U
 800cc5e:	1f4c3e5c 76a5b72a ffffffff ffffffff     \>L.*..v........
 800cc6e:	ffffffff ffffffff ffffffff ffffffff     ................
 800cc7e:	ffffffff ffffffff ffffffff ffffffff     ................
 800cc8e:	ffffffff ffffffff ffffffff ffffffff     ................
 800cc9e:	ffffffff ffffffff ffffffff ffffffff     ................
 800ccae:	ffffffff ffffffff ffffffff ffffffff     ................
 800ccbe:	ffffffff ffffffff ffffffff ffffffff     ................
 800ccce:	ffffffff ffffffff ffffffff ffffffff     ................
 800ccde:	ffffffff ffffffff ffffffff ffffffff     ................
 800ccee:	ffffffff ffffffff ffffffff ffffffff     ................
 800ccfe:	ffffffff ffffffff ffffffff ffffffff     ................
 800cd0e:	ffffffff ffffffff ffffffff ffffffff     ................
 800cd1e:	ffffffff ffffffff ffffffff ffffffff     ................
 800cd2e:	ffffffff ffffffff ffffffff ffffffff     ................
 800cd3e:	ffffffff ffffffff ffffffff ffffffff     ................
 800cd4e:	ce52ffff 02000000 7609ed08 32095309     ..R........v.S.2
 800cd5e:	32093109 f0083209 52118e00 7f5c5a43     .1.2.2.....RCZ\.
 800cd6e:	7843ff43 54adaf6b ffffffff ffffffff     C.Cxk..T........
 800cd7e:	ffffffff ffffffff ffffffff ffffffff     ................
 800cd8e:	ffffffff ffffffff ffffffff ffffffff     ................
 800cd9e:	ffffffff ffffffff ffffffff ffffffff     ................
 800cdae:	ffffffff ffffffff ffffffff ffffffff     ................
 800cdbe:	ffffffff ffffffff ffffffff ffffffff     ................
 800cdce:	ffffffff ffffffff ffffffff ffffffff     ................
 800cdde:	ffffffff ffffffff ffffffff ffffffff     ................
 800cdee:	ffffffff ffffffff ffffffff ffffffff     ................
 800cdfe:	ffffffff ffffffff ffffffff ffffffff     ................
 800ce0e:	ffffffff ffffffff ffffffff ffffffff     ................
 800ce1e:	ffffffff ffffffff ffffffff ffffffff     ................
 800ce2e:	ffffffff ffffffff ffffffff ffffffff     ................
 800ce3e:	ffffffff ffffffff ffffffff ffffffff     ................
 800ce4e:	ffffffff ffffffff ffffffff ffffffff     ................
 800ce5e:	ffffffff 6a08337c 75098f00 53097409     ....|3.j...u.t.S
 800ce6e:	33013309 53091201 7f5cda32 fb5bbf64     .3.3...S2.\.d.[.
 800ce7e:	718cf563 928cb194 ffffbef7 ffffffff     c..q............
 800ce8e:	ffffffff ffffffff ffffffff ffffffff     ................
 800ce9e:	ffffffff ffffffff ffffffff ffffffff     ................
 800ceae:	ffffffff ffffffff ffffffff ffffffff     ................
 800cebe:	ffffffff ffffffff ffffffff ffffffff     ................
 800cece:	ffffffff ffffffff ffffffff ffffffff     ................
 800cede:	ffffffff ffffffff ffffffff ffffffff     ................
 800ceee:	ffffffff ffffffff ffffffff ffffffff     ................
 800cefe:	ffffffff ffffffff ffffffff ffffffff     ................
 800cf0e:	ffffffff ffffffff ffffffff ffffffff     ................
 800cf1e:	ffffffff ffffffff ffffffff ffffffff     ................
